	.cpu arm7tdmi
	.eabi_attribute 20, 1
	.eabi_attribute 21, 1
	.eabi_attribute 23, 3
	.eabi_attribute 24, 1
	.eabi_attribute 25, 1
	.eabi_attribute 26, 1
	.eabi_attribute 30, 6
	.eabi_attribute 34, 0
	.eabi_attribute 18, 4
	.file	"cast128.c"
	.text
	.section	.rodata
	.align	2
	.type	key, %object
	.size	key, 16
key:
	.ascii	"\017\016\015\014\013\012\011\010\007\006\005\004\003"
	.ascii	"\002\001\000"
	.align	2
	.type	data, %object
	.size	data, 16
data:
	.ascii	"\000\001\002\003\004\005\006\007\010\011\012\013\014"
	.ascii	"\015\016\017"
	.bss
	.align	2
result:
	.space	16
	.size	result, 16
	.global	cast128_ctx
	.align	2
	.type	cast128_ctx, %object
	.size	cast128_ctx, 84
cast128_ctx:
	.space	84
	.section	.rodata
	.align	2
	.type	cast_sbox1, %object
	.size	cast_sbox1, 1024
cast_sbox1:
	.word	821772500
	.word	-1616838901
	.word	1810681135
	.word	1059425402
	.word	505495343
	.word	-1677701677
	.word	1610868032
	.word	-811611831
	.word	-1076580569
	.word	-2000962123
	.word	-503103344
	.word	-1731160459
	.word	1852023008
	.word	365126098
	.word	-1025022435
	.word	584384398
	.word	677919599
	.word	-1065365415
	.word	-14452280
	.word	2002735330
	.word	1136869587
	.word	-550533546
	.word	-2005097446
	.word	-1563247315
	.word	-1580605226
	.word	879511577
	.word	1639411079
	.word	575934255
	.word	717107937
	.word	-1437329813
	.word	576097850
	.word	-1563213360
	.word	1725645000
	.word	-1484506833
	.word	5111599
	.word	767152862
	.word	-1751892052
	.word	1251459544
	.word	1383482551
	.word	-1242286169
	.word	-1205028113
	.word	-682503847
	.word	1878520045
	.word	1510570527
	.word	-2105841456
	.word	-1863518930
	.word	582008916
	.word	-1131521739
	.word	1265446783
	.word	1354458274
	.word	-765048560
	.word	-1092255443
	.word	-1221385584
	.word	-382003809
	.word	-1265703919
	.word	1275016285
	.word	-45759936
	.word	-1389258945
	.word	-990457810
	.word	1442611557
	.word	-709768531
	.word	-1582551634
	.word	-1563117715
	.word	-1046803376
	.word	-2011021070
	.word	208555832
	.word	-1528512553
	.word	1331405426
	.word	1447828783
	.word	-979610855
	.word	-1186340012
	.word	-1337562626
	.word	-1313428598
	.word	-955033379
	.word	1669711173
	.word	286233437
	.word	1465092821
	.word	1782121619
	.word	-432195616
	.word	710211251
	.word	980974943
	.word	1651941557
	.word	430374111
	.word	2051154026
	.word	704238805
	.word	-165996399
	.word	-1150146722
	.word	-1437564569
	.word	948965521
	.word	-961214997
	.word	-2067281012
	.word	718756367
	.word	-2025188313
	.word	-1563323541
	.word	718440111
	.word	-1437150575
	.word	-678870176
	.word	1113355533
	.word	-1816945114
	.word	410092745
	.word	1811985197
	.word	1944238868
	.word	-1598112708
	.word	1415722873
	.word	1682284203
	.word	1060277122
	.word	1998114690
	.word	1503841958
	.word	82706478
	.word	-1979811610
	.word	1068173648
	.word	845149890
	.word	-2127020283
	.word	1768146376
	.word	1993038550
	.word	-728140599
	.word	-904393265
	.word	940016341
	.word	-939893514
	.word	-1966926575
	.word	904371731
	.word	1205506512
	.word	-200306554
	.word	-1478344290
	.word	825647681
	.word	85914773
	.word	-1437123836
	.word	1249926541
	.word	1417871568
	.word	3287612
	.word	-1083912737
	.word	-1168660850
	.word	1975924523
	.word	1353700161
	.word	-1480510859
	.word	-1856369675
	.word	1800716203
	.word	722146342
	.word	-1421030953
	.word	1151126914
	.word	-134483355
	.word	-1417296397
	.word	458611604
	.word	-1428888796
	.word	-811287233
	.word	770352098
	.word	-1642050302
	.word	-927128148
	.word	-354462285
	.word	-708993384
	.word	-485346894
	.word	718646636
	.word	-1790760482
	.word	-1380039384
	.word	-663679127
	.word	-1437480689
	.word	-1434948618
	.word	575749918
	.word	-1437489253
	.word	718488780
	.word	2069512688
	.word	-746783827
	.word	453416197
	.word	1106044049
	.word	-1262275866
	.word	52586708
	.word	-916452660
	.word	-835158419
	.word	-1083461268
	.word	1785789304
	.word	218356169
	.word	-723568162
	.word	-535796774
	.word	1194783844
	.word	1523787992
	.word	-1287140202
	.word	1975193539
	.word	-1739514885
	.word	1341901877
	.word	-1249128598
	.word	-518059332
	.word	-1077543350
	.word	-1492456432
	.word	-1405528310
	.word	1057244207
	.word	1636348243
	.word	-533104082
	.word	1462225785
	.word	-1662303857
	.word	481089165
	.word	718503062
	.word	24497053
	.word	-962724087
	.word	-950311440
	.word	-639942440
	.word	-334596231
	.word	1195698900
	.word	-1323552140
	.word	-584791138
	.word	2115785917
	.word	-267303687
	.word	-769388879
	.word	-1770671107
	.word	-1548994731
	.word	-730060881
	.word	1372086093
	.word	1452307862
	.word	-1514465818
	.word	1476592880
	.word	-905696015
	.word	18495466
	.word	-1916818725
	.word	901398090
	.word	891748256
	.word	-1015329527
	.word	-1137676583
	.word	-1734007194
	.word	1447622437
	.word	-10594659
	.word	216884176
	.word	2086908623
	.word	1879786977
	.word	-706064143
	.word	-2052511630
	.word	-1356874329
	.word	-735885200
	.word	-1484321805
	.word	758861177
	.word	1121993112
	.word	215018983
	.word	642190776
	.word	-125730484
	.word	1196255959
	.word	2081185372
	.word	-786228903
	.word	941322904
	.word	-170724133
	.word	-1417443757
	.word	1848581667
	.word	-2089706338
	.word	-1114513338
	.word	-1705622162
	.word	-600236020
	.word	550028657
	.word	-1775511012
	.word	-504981761
	.word	-1321096440
	.word	2093648313
	.word	443148163
	.word	46942275
	.word	-1560820359
	.word	1117713533
	.word	1115362972
	.word	1523183689
	.word	-577827072
	.word	1551984063
	.align	2
	.type	cast_sbox2, %object
	.size	cast_sbox2, 1024
cast_sbox2:
	.word	522195092
	.word	-284448933
	.word	1776537470
	.word	960447360
	.word	-27144326
	.word	-289070982
	.word	1435016340
	.word	1929119313
	.word	-1381503111
	.word	1310552629
	.word	-715496498
	.word	-570149190
	.word	-1715195665
	.word	1594623892
	.word	417127293
	.word	-1579749389
	.word	-1598738565
	.word	1508390405
	.word	-300568428
	.word	-369108727
	.word	-599523194
	.word	-275495847
	.word	-1165767501
	.word	-524038661
	.word	-774225535
	.word	990456497
	.word	-107482687
	.word	-1511600261
	.word	21106139
	.word	-454561957
	.word	631373633
	.word	-511641594
	.word	532942976
	.word	396095098
	.word	-746928471
	.word	-27774812
	.word	-1730245761
	.word	2011709262
	.word	2039648873
	.word	620404603
	.word	-518797221
	.word	-1396440957
	.word	-682609371
	.word	-135634593
	.word	1645490516
	.word	223693667
	.word	1567101217
	.word	-932789415
	.word	1029951347
	.word	-824036160
	.word	-724009337
	.word	1550265121
	.word	119497089
	.word	972513919
	.word	907948164
	.word	-454338757
	.word	1613718692
	.word	-700789348
	.word	465323573
	.word	-1635712211
	.word	654439692
	.word	-1719371084
	.word	-1595678855
	.word	-1167264884
	.word	277098644
	.word	624404830
	.word	-194023426
	.word	-1577108705
	.word	546110314
	.word	-1891267468
	.word	-639589849
	.word	1321679412
	.word	-58175639
	.word	1045293279
	.word	-284295032
	.word	895050893
	.word	-1975175028
	.word	494945126
	.word	1914543101
	.word	-1517910853
	.word	-400202957
	.word	-2075229678
	.word	311263384
	.word	-19710028
	.word	-836236575
	.word	669096869
	.word	-710491566
	.word	-459844419
	.word	-975809059
	.word	-345608092
	.word	2005142349
	.word	-1581864959
	.word	-2066012503
	.word	-524982508
	.word	569394103
	.word	-439330720
	.word	1425027204
	.word	108000370
	.word	-1558535853
	.word	-623098027
	.word	-1251844673
	.word	1750473702
	.word	-2083886188
	.word	762237499
	.word	-321977893
	.word	-1496067910
	.word	-1233109668
	.word	-1351112951
	.word	867476300
	.word	964413654
	.word	1591880597
	.word	1594774276
	.word	-2115145887
	.word	552026980
	.word	-1268903048
	.word	-568826981
	.word	-2011389662
	.word	-1184422191
	.word	-2142656536
	.word	582474363
	.word	1582640421
	.word	1383256631
	.word	2043843868
	.word	-972191412
	.word	1217180674
	.word	463797851
	.word	-1531928725
	.word	480777679
	.word	-1576259579
	.word	-2005803165
	.word	-1176621109
	.word	214354409
	.word	200212307
	.word	-484358889
	.word	-1269553099
	.word	-1620891332
	.word	-297670871
	.word	1847405948
	.word	1342460550
	.word	510035443
	.word	-214695482
	.word	815934613
	.word	833030224
	.word	1620250387
	.word	1945732119
	.word	-1591306151
	.word	-328967100
	.word	1388869545
	.word	-838913114
	.word	-1607788735
	.word	2092620194
	.word	562037615
	.word	1356438536
	.word	-885045151
	.word	-1033119899
	.word	1688467115
	.word	-2144065930
	.word	631725691
	.word	-454635012
	.word	549916902
	.word	-839862656
	.word	394546491
	.word	837744717
	.word	2114462948
	.word	751520235
	.word	-2073412690
	.word	-1879607160
	.word	-295870218
	.word	2063029875
	.word	803036379
	.word	-1592380991
	.word	821456707
	.word	-1275401132
	.word	360699898
	.word	-276465204
	.word	-783098280
	.word	-617611938
	.word	-1892495847
	.word	812317050
	.word	49299192
	.word	-1724802347
	.word	-1035798001
	.word	-1478235216
	.word	-963753722
	.word	-1193663732
	.word	-2138951640
	.word	-589368376
	.word	-748703375
	.word	143268808
	.word	-1094662816
	.word	1638124008
	.word	-1129777843
	.word	-953159686
	.word	578956953
	.word	-2100989772
	.word	-656847223
	.word	-1961085764
	.word	807278310
	.word	658237817
	.word	-1325405530
	.word	1641658566
	.word	11683945
	.word	-1207972289
	.word	148645947
	.word	1138423386
	.word	-136210536
	.word	1981396783
	.word	-1893950556
	.word	-595183712
	.word	380097457
	.word	-1614572617
	.word	-1491898645
	.word	-960707010
	.word	441530178
	.word	-278386500
	.word	1375954390
	.word	761952171
	.word	891809099
	.word	-2111843818
	.word	157052462
	.word	-611126533
	.word	1592404427
	.word	341349109
	.word	-1856483457
	.word	1417898363
	.word	644327628
	.word	-2061934520
	.word	-1941197590
	.word	-2093457196
	.word	220455161
	.word	1815641738
	.word	182899273
	.word	-1299947508
	.word	-667585763
	.word	-592329145
	.word	-1404283158
	.word	1052606899
	.word	588164016
	.word	1681439879
	.word	-256527878
	.word	-1889623373
	.word	-65518014
	.word	167996282
	.word	1336969661
	.word	1688053129
	.word	-1555742370
	.word	1543734051
	.word	1046297529
	.word	1138201970
	.word	2121126012
	.word	115334942
	.word	1819067631
	.word	1902159161
	.word	1941945968
	.word	-2088274427
	.word	1159982321
	.align	2
	.type	cast_sbox3, %object
	.size	cast_sbox3, 1024
cast_sbox3:
	.word	-1913667008
	.word	637164959
	.word	-342868545
	.word	-401553145
	.word	1197506559
	.word	916448331
	.word	-1944074684
	.word	-1362179440
	.word	-1095632449
	.word	-285488406
	.word	-389080752
	.word	1373570990
	.word	-1844541434
	.word	-257096376
	.word	-516125309
	.word	-1838149419
	.word	286293407
	.word	124026297
	.word	-1293687596
	.word	1028597854
	.word	-1179670496
	.word	-86080800
	.word	-1603852661
	.word	-2106427090
	.word	1430237888
	.word	1218109995
	.word	-722495596
	.word	308166588
	.word	570424558
	.word	-2107958275
	.word	-1839872531
	.word	307733056
	.word	1310360322
	.word	-1159692289
	.word	1384269543
	.word	-1906895858
	.word	863238079
	.word	-1935703672
	.word	-1493414168
	.word	-914180699
	.word	-1463804489
	.word	1470087780
	.word	1728663345
	.word	-222478497
	.word	1090516929
	.word	532123132
	.word	-1905536319
	.word	1132193179
	.word	-1716503105
	.word	-1243888053
	.word	1670234342
	.word	1434557849
	.word	-1583888356
	.word	1241591150
	.word	-980923864
	.word	-859607183
	.word	-1203518957
	.word	1812415473
	.word	-2096527044
	.word	267246943
	.word	796911696
	.word	-675250306
	.word	38830015
	.word	1526438404
	.word	-1488465200
	.word	374413614
	.word	-1351565506
	.word	1489179520
	.word	1603809326
	.word	1920779204
	.word	168801282
	.word	260042626
	.word	-1936261715
	.word	1563175598
	.word	-1897293239
	.word	1356499128
	.word	-2077756256
	.word	514611088
	.word	2037363785
	.word	-2108498923
	.word	-272794213
	.word	-1502455427
	.word	-1381482280
	.word	1173701892
	.word	-94538749
	.word	-398540027
	.word	1334932762
	.word	-1839830590
	.word	602925377
	.word	-1459359442
	.word	1613172210
	.word	41346230
	.word	-1795332748
	.word	-1837529678
	.word	-2106139701
	.word	41386358
	.word	-122711667
	.word	1313404830
	.word	-1889440289
	.word	-492993522
	.word	-2077262461
	.word	873260488
	.word	-1766082942
	.word	-1816874680
	.word	-282051413
	.word	-1739608280
	.word	2006953883
	.word	-1831053811
	.word	575479328
	.word	-2076726648
	.word	2099895446
	.word	660001756
	.word	-1953465106
	.word	-1256205760
	.word	-406815517
	.word	-446253919
	.word	-1008115362
	.word	1022894237
	.word	1620365795
	.word	-845372607
	.word	1551255054
	.word	15374395
	.word	-724141951
	.word	-45656276
	.word	-143856167
	.word	-1113054564
	.word	310226346
	.word	1133119310
	.word	530038928
	.word	136043402
	.word	-1818198338
	.word	-1187460587
	.word	-1750057729
	.word	1036173560
	.word	-1927630100
	.word	1681395281
	.word	1758231547
	.word	-653318264
	.word	306774401
	.word	1575354324
	.word	-578881430
	.word	1990386196
	.word	-1180433560
	.word	-1839360625
	.word	1262092282
	.word	-1170624791
	.word	-1526738165
	.word	-84438213
	.word	1833535011
	.word	423410938
	.word	660763973
	.word	-2107837318
	.word	1639812000
	.word	-786545967
	.word	-827521804
	.word	310289298
	.word	272797111
	.word	-2106414734
	.word	-1838103384
	.word	310240523
	.word	677093832
	.word	1013118031
	.word	901835429
	.word	-402271695
	.word	1116285435
	.word	-1258496126
	.word	1337354835
	.word	243122523
	.word	520626091
	.word	277223598
	.word	-50526099
	.word	-100718455
	.word	1766575121
	.word	594173102
	.word	316590669
	.word	742362309
	.word	-758108674
	.word	-118531946
	.word	-456174886
	.word	-1793762457
	.word	1229605004
	.word	-1179211764
	.word	1552908988
	.word	-1982633147
	.word	979407927
	.word	-335492695
	.word	1148277331
	.word	176638793
	.word	-680281024
	.word	2083809052
	.word	40992502
	.word	1340822838
	.word	-1563414529
	.word	-759209788
	.word	-734067776
	.word	1354035053
	.word	122129617
	.word	7215240
	.word	-1562034347
	.word	-1176054596
	.word	-1576763370
	.word	-1755891661
	.word	-685736601
	.word	-569405635
	.word	1928887091
	.word	-1412673741
	.word	1988674909
	.word	2063640240
	.word	-1803878399
	.word	1459647954
	.word	-105150216
	.word	-1992162914
	.word	1113892351
	.word	-2057108768
	.word	1927010603
	.word	-292086935
	.word	1856122846
	.word	1594404395
	.word	-1350934163
	.word	-439777433
	.word	-819991598
	.word	1643104450
	.word	-240376463
	.word	-863880766
	.word	1730235576
	.word	-1310358575
	.word	-1210302878
	.word	2131803598
	.word	-116761544
	.word	267404349
	.word	1617849798
	.word	1616132681
	.word	1462223176
	.word	736725533
	.word	-1967909064
	.word	551665188
	.word	-1349068273
	.word	1749386277
	.word	-1719452699
	.word	1611482493
	.word	674206544
	.word	-2093698206
	.word	-652406496
	.word	728599968
	.word	1680547377
	.word	-1674552832
	.word	1388111496
	.word	453204106
	.word	-138743851
	.word	1094905244
	.word	-1540269039
	.word	-2093859131
	.word	-537967050
	.word	-1590442751
	.word	-372026596
	.word	-298502269
	.align	2
	.type	cast_sbox4, %object
	.size	cast_sbox4, 1024
cast_sbox4:
	.word	-1649212384
	.word	532081118
	.word	-1480688657
	.word	-764173672
	.word	1246723035
	.word	1689095255
	.word	-2058288061
	.word	-100528431
	.word	2116582143
	.word	-435177885
	.word	157234593
	.word	2045505824
	.word	-49963709
	.word	1687664561
	.word	-211542173
	.word	605965023
	.word	672431967
	.word	1336064205
	.word	-918355904
	.word	214114848
	.word	-36500688
	.word	-1062914225
	.word	489488601
	.word	605322005
	.word	-296939238
	.word	264917351
	.word	1912574028
	.word	756637694
	.word	436560991
	.word	202637054
	.word	135989450
	.word	85393697
	.word	-2142043904
	.word	-398565634
	.word	-1399130888
	.word	2145855233
	.word	-759632289
	.word	115294817
	.word	-1147233398
	.word	1922296357
	.word	-830144545
	.word	-177108991
	.word	1037454084
	.word	-1569774021
	.word	2127856640
	.word	1417604070
	.word	1148013728
	.word	1827919605
	.word	642362335
	.word	-1365194763
	.word	909348033
	.word	1346338451
	.word	-747167647
	.word	297154785
	.word	1917849091
	.word	-133254469
	.word	-1411362770
	.word	-326273058
	.word	1469521537
	.word	-514889914
	.word	-919383040
	.word	1763717519
	.word	136166297
	.word	-3996507
	.word	1295325189
	.word	2134727907
	.word	-1496815930
	.word	1566297257
	.word	-622039062
	.word	-1617793135
	.word	-1622793681
	.word	965822077
	.word	-1514181234
	.word	289653839
	.word	1133871874
	.word	-803123477
	.word	35685304
	.word	1068898316
	.word	418943774
	.word	672553190
	.word	642281022
	.word	-1948808592
	.word	1954014401
	.word	-1257840516
	.word	-215152091
	.word	2030668546
	.word	-454378623
	.word	672283427
	.word	1776201016
	.word	359975446
	.word	-544793758
	.word	555499703
	.word	-1524982023
	.word	1324923
	.word	69110472
	.word	152125443
	.word	-1118182190
	.word	-472820011
	.word	1340634837
	.word	798073664
	.word	1434183902
	.word	15393959
	.word	216384236
	.word	1303690150
	.word	-413745665
	.word	-583833172
	.word	-333991883
	.word	106373927
	.word	-1716533072
	.word	1455997841
	.word	1801814300
	.word	1578393881
	.word	1854262133
	.word	-1106788350
	.word	-1036888713
	.word	-1992297236
	.word	1539295533
	.word	-789824731
	.word	-1216341321
	.word	-1922221276
	.word	549938159
	.word	-1016683012
	.word	-1674041216
	.word	181285381
	.word	-1429646198
	.word	-324937785
	.word	68876850
	.word	488006234
	.word	1728155692
	.word	-1686799788
	.word	836007927
	.word	-1859735503
	.word	919367643
	.word	-955544762
	.word	-639210936
	.word	1457871481
	.word	40520939
	.word	1380155135
	.word	797931188
	.word	234455205
	.word	-2039165469
	.word	-304478997
	.word	397000196
	.word	739833055
	.word	-1217101923
	.word	-1423247436
	.word	-272413408
	.word	772369276
	.word	390177364
	.word	-441016267
	.word	557662966
	.word	740064294
	.word	1640166671
	.word	1699928825
	.word	-759025160
	.word	622006121
	.word	-669614174
	.word	68743880
	.word	1742502
	.word	219489963
	.word	1664179233
	.word	1577743084
	.word	1236991741
	.word	410585305
	.word	-1928479354
	.word	823226535
	.word	1050371084
	.word	-868347689
	.word	-708127818
	.word	212779912
	.word	-147848735
	.word	1819446015
	.word	1911218849
	.word	530248558
	.word	-808726225
	.word	-1042381801
	.word	-1408778645
	.word	-884694568
	.word	-1952772266
	.word	20547779
	.word	-1312477238
	.word	-1262603827
	.word	-663214074
	.word	312714466
	.word	1870521650
	.word	1493008054
	.word	-803280640
	.word	615382978
	.word	-191295547
	.word	-1760449851
	.word	1932181
	.word	-2098862126
	.word	278426614
	.word	6369430
	.word	-1020422879
	.word	-1381948929
	.word	697336853
	.word	2143000447
	.word	-1348553765
	.word	701099306
	.word	1558357093
	.word	-1489964244
	.word	-794148888
	.word	-1973632879
	.word	-727831321
	.word	216290473
	.word	-703935098
	.word	23009561
	.word	1996984579
	.word	-559924490
	.word	2024298078
	.word	-555526433
	.word	569400510
	.word	-1955208313
	.word	-1278933423
	.word	-1197095953
	.word	-655444270
	.word	-450642313
	.word	-1038793431
	.word	795471839
	.word	-1343849733
	.word	-193936206
	.word	-203363493
	.word	-691234698
	.word	971261452
	.word	534414648
	.word	428311343
	.word	-905940121
	.word	-1450097416
	.word	694888862
	.word	1227866773
	.word	-1838760277
	.word	-1251512727
	.word	-1680613926
	.word	-545389265
	.word	-618303460
	.word	459166190
	.word	-162323226
	.word	1794958188
	.word	51825668
	.word	-2042355394
	.word	-1210295856
	.word	2036672799
	.word	-858325693
	.word	1099053433
	.word	-1825845770
	.word	-1235762355
	.word	1323291266
	.word	2061838604
	.word	1018778475
	.word	-2061623042
	.word	-1741466242
	.word	334295216
	.word	-738217102
	.word	1065731521
	.word	183467730
	.align	2
	.type	cast_sbox5, %object
	.size	cast_sbox5, 1024
cast_sbox5:
	.word	2127105028
	.word	745436345
	.word	-1693554977
	.word	-1506576111
	.word	-1200979969
	.word	500390133
	.word	1155374404
	.word	389092991
	.word	150729210
	.word	-403369524
	.word	-771417344
	.word	1935325696
	.word	716645080
	.word	946045387
	.word	-1393155014
	.word	1774124410
	.word	-425531521
	.word	-255385395
	.word	-1001830378
	.word	-856309376
	.word	948246080
	.word	363898952
	.word	-427091765
	.word	1286266623
	.word	1598556673
	.word	68334250
	.word	630723836
	.word	1104211938
	.word	1312863373
	.word	613332731
	.word	-1917182722
	.word	1101634306
	.word	441780740
	.word	-1165007413
	.word	1917973735
	.word	-1784342747
	.word	-1056510761
	.word	-1750755318
	.word	-986072662
	.word	1299840618
	.word	-218892445
	.word	1756332096
	.word	-317940138
	.word	297047435
	.word	-504669560
	.word	-2029394256
	.word	-673156778
	.word	1311375015
	.word	1667687725
	.word	47300608
	.word	-995324411
	.word	-1820854927
	.word	201668394
	.word	1468347890
	.word	576830978
	.word	-700276535
	.word	-552361344
	.word	1958042578
	.word	1747032512
	.word	-735975956
	.word	1408974056
	.word	-928125517
	.word	682131401
	.word	1033214337
	.word	1545599232
	.word	-29830247
	.word	206503691
	.word	103024618
	.word	-1439739983
	.word	1337551222
	.word	-1865968379
	.word	-1331124364
	.word	-279600641
	.word	-442719550
	.word	-1498010329
	.word	-429243805
	.word	-547028961
	.word	247794022
	.word	-539142724
	.word	702416469
	.word	-1860275302
	.word	397379957
	.word	851939612
	.word	-1980197784
	.word	218229120
	.word	1380406772
	.word	62274761
	.word	214451378
	.word	-1124863830
	.word	-2018756887
	.word	-449154010
	.word	28563499
	.word	446592073
	.word	1693330814
	.word	-841240102
	.word	29968656
	.word	-1201094784
	.word	220656637
	.word	-1824330265
	.word	77972100
	.word	1667708854
	.word	1358280214
	.word	-230201629
	.word	-1899350335
	.word	325977563
	.word	-17726575
	.word	-74941897
	.word	-689440812
	.word	-939819575
	.word	811859167
	.word	-1225422370
	.word	-332840486
	.word	652502677
	.word	-1219075047
	.word	-162205755
	.word	-796043081
	.word	1217549313
	.word	-1044722817
	.word	-436251377
	.word	-1240977335
	.word	1538642152
	.word	-2015941030
	.word	-1419088159
	.word	574252750
	.word	-970198067
	.word	-1643608583
	.word	1758150215
	.word	141295887
	.word	-1575098336
	.word	-779392546
	.word	-201959561
	.word	-100482058
	.word	1082055363
	.word	-877406896
	.word	395511885
	.word	-1328083270
	.word	179534037
	.word	-648938740
	.word	-556279210
	.word	1092926436
	.word	-1798698154
	.word	257381841
	.word	-522066578
	.word	1636087230
	.word	1477059743
	.word	-1795732544
	.word	-483948402
	.word	-1619307167
	.word	-1008991616
	.word	90732309
	.word	1684827095
	.word	1150307763
	.word	1723134115
	.word	-1057921910
	.word	1769919919
	.word	1240018934
	.word	815675215
	.word	750138730
	.word	-2055174797
	.word	1234303040
	.word	1995484674
	.word	138143821
	.word	675421338
	.word	1145607174
	.word	1936608440
	.word	-1056364272
	.word	-1949737018
	.word	2105974004
	.word	323969391
	.word	779555213
	.word	-1290064927
	.word	-1433357198
	.word	1017501463
	.word	2098600890
	.word	-1666346992
	.word	-1354355806
	.word	-1612424750
	.word	1171473753
	.word	-638395885
	.word	-607759225
	.word	-203097778
	.word	393037935
	.word	159126506
	.word	1662887367
	.word	1147106178
	.word	391545844
	.word	-842634601
	.word	1891500680
	.word	-1278357646
	.word	1851642611
	.word	546529401
	.word	1167818917
	.word	-1100946725
	.word	-1446891263
	.word	-341495460
	.word	575554290
	.word	475796850
	.word	-160294100
	.word	450035699
	.word	-1943715762
	.word	844027695
	.word	1080539133
	.word	86184846
	.word	1554234488
	.word	-602941842
	.word	1972511363
	.word	2018339607
	.word	1491841390
	.word	1141460869
	.word	1061690759
	.word	-50418053
	.word	2008416118
	.word	-1943862593
	.word	-1426819754
	.word	1598468138
	.word	722020353
	.word	1027143159
	.word	212344630
	.word	1387219594
	.word	1725294528
	.word	-549779340
	.word	-1794813680
	.word	458938280
	.word	-165751379
	.word	1828119673
	.word	544571780
	.word	-791741851
	.word	-1997029800
	.word	1241802790
	.word	267843827
	.word	-1600356496
	.word	1397140384
	.word	1558801448
	.word	-512299613
	.word	1806446719
	.word	929573330
	.word	-2060054615
	.word	400817706
	.word	616011623
	.word	-173446368
	.word	-691198571
	.word	1761550015
	.word	1968522284
	.word	-241236290
	.word	-102734438
	.word	-289847011
	.word	872482584
	.word	-1154430280
	.word	-400359915
	.word	-2007561853
	.word	1963876937
	.word	-631079339
	.word	1584857000
	.word	-1319942842
	.word	1833426440
	.word	-269883436
	.align	2
	.type	cast_sbox6, %object
	.size	cast_sbox6, 1024
cast_sbox6:
	.word	-151351395
	.word	749497569
	.word	1285769319
	.word	-499941508
	.word	-1780807449
	.word	23610292
	.word	-319988548
	.word	844452780
	.word	-1080096416
	.word	-543038739
	.word	-2081400931
	.word	1676510905
	.word	448177848
	.word	-564216263
	.word	-208668878
	.word	-1987464904
	.word	871450977
	.word	-1072089155
	.word	-184105254
	.word	-463315330
	.word	-1559696743
	.word	1310974780
	.word	2043402188
	.word	1218528103
	.word	-1558931943
	.word	-20362283
	.word	-1592518838
	.word	-358606746
	.word	-1601905875
	.word	162023535
	.word	-1467457206
	.word	687910808
	.word	23484817
	.word	-510056349
	.word	-923595680
	.word	779677500
	.word	-791340750
	.word	-821040108
	.word	-137754670
	.word	-794288014
	.word	-46065282
	.word	-1828346192
	.word	-395582502
	.word	1958663117
	.word	925738300
	.word	1283408968
	.word	-625617856
	.word	1840910019
	.word	137959847
	.word	-1615139111
	.word	1239142320
	.word	1315376211
	.word	1547541505
	.word	1690155329
	.word	739140458
	.word	-1166157363
	.word	-361794680
	.word	-418658462
	.word	905091803
	.word	1548541325
	.word	-254505588
	.word	-1199483934
	.word	144808038
	.word	451078856
	.word	676114313
	.word	-1433239005
	.word	-1825259949
	.word	993665471
	.word	373509091
	.word	-1695926010
	.word	-269958290
	.word	-124727847
	.word	-2145227346
	.word	-1019173725
	.word	-545350647
	.word	-1500207097
	.word	1534877388
	.word	572371878
	.word	-1704353745
	.word	1753320020
	.word	-827184785
	.word	1405125690
	.word	-24562091
	.word	633333386
	.word	-1268610372
	.word	-819843393
	.word	632057672
	.word	-1448504441
	.word	1404951397
	.word	-412091417
	.word	-379060872
	.word	195638627
	.word	-1909183551
	.word	-392094743
	.word	1233155085
	.word	-938967556
	.word	-1914388583
	.word	-1592720992
	.word	2144565621
	.word	-631626048
	.word	-400582321
	.word	-1792488055
	.word	-46948371
	.word	-1200081729
	.word	1594115437
	.word	572884632
	.word	-909850565
	.word	767645374
	.word	1331858858
	.word	1475698373
	.word	-501085506
	.word	-762220865
	.word	1321687957
	.word	619889600
	.word	1121017241
	.word	-854753376
	.word	2070816767
	.word	-1461941520
	.word	1933951238
	.word	-199351505
	.word	890643334
	.word	-420837082
	.word	859025556
	.word	360630002
	.word	925594799
	.word	1764062180
	.word	-374745016
	.word	-216661367
	.word	979562269
	.word	-1484266952
	.word	-207227274
	.word	1949714515
	.word	546639971
	.word	1165388173
	.word	-1225075705
	.word	1495988560
	.word	922170659
	.word	1291546247
	.word	2107952832
	.word	1813327274
	.word	-888957272
	.word	-988938659
	.word	-53016661
	.word	153207855
	.word	-1981812549
	.word	1608695416
	.word	1150242611
	.word	1967526857
	.word	721801357
	.word	1220138373
	.word	-603679679
	.word	-938897509
	.word	2112743302
	.word	-1013304461
	.word	1111556101
	.word	1778980689
	.word	250857638
	.word	-1996459306
	.word	673216130
	.word	-1448478786
	.word	-1087215715
	.word	-732210315
	.word	-1286341376
	.word	-877599912
	.word	-2096160246
	.word	529510932
	.word	-747450616
	.word	-868464109
	.word	-1930022554
	.word	102533054
	.word	-2000056440
	.word	1617093527
	.word	1204784762
	.word	-1228385661
	.word	1019391227
	.word	1069574518
	.word	1317995090
	.word	1691889997
	.word	-633835293
	.word	510022745
	.word	-1056372496
	.word	1362108837
	.word	1817929911
	.word	-2110813536
	.word	805817662
	.word	1953603311
	.word	-595122559
	.word	120799444
	.word	2118332377
	.word	207536705
	.word	-2012665748
	.word	-174925679
	.word	145305846
	.word	-1786842363
	.word	-1208221763
	.word	-1033442961
	.word	1877257368
	.word	-1317802816
	.word	-1134513110
	.word	-1791715110
	.word	-73290222
	.word	759945014
	.word	254147243
	.word	-1527513877
	.word	-493448925
	.word	629083197
	.word	-1823953079
	.word	907280572
	.word	-394170550
	.word	940896768
	.word	-1543946173
	.word	-1669704510
	.word	-1133490345
	.word	-633214983
	.word	-1034235078
	.word	1425318020
	.word	-1317055227
	.word	1496677566
	.word	-306375224
	.word	2140652971
	.word	-1168455755
	.word	-1225335121
	.word	977771578
	.word	1392695845
	.word	1698528874
	.word	1411812681
	.word	1369733098
	.word	1343739227
	.word	-674079352
	.word	1142123638
	.word	67414216
	.word	-1192910559
	.word	-1206218102
	.word	1626167401
	.word	-1748673642
	.word	-353593061
	.word	697522451
	.word	33404913
	.word	143560186
	.word	-1699285259
	.word	994885535
	.word	1247667115
	.word	-435872459
	.word	-1595811755
	.word	-747942671
	.word	-180032021
	.word	-1326893788
	.word	-1095004227
	.word	-1562942769
	.word	1237921620
	.word	951448369
	.word	1898488916
	.word	1211705605
	.word	-1503978056
	.word	-2061723715
	.word	-696922321
	.align	2
	.type	cast_sbox7, %object
	.size	cast_sbox7, 1024
cast_sbox7:
	.word	-2048901095
	.word	858518887
	.word	1714274303
	.word	-809085293
	.word	713916271
	.word	-1415853806
	.word	-564131679
	.word	539548191
	.word	36158695
	.word	1298409750
	.word	419087104
	.word	1358007170
	.word	749914897
	.word	-1305286820
	.word	1261868530
	.word	-1299773474
	.word	-1604338442
	.word	-851344919
	.word	-514842356
	.word	-498142787
	.word	-1318534271
	.word	-35330167
	.word	1551479000
	.word	512490819
	.word	1296650241
	.word	951993153
	.word	-1858277859
	.word	-1834509249
	.word	144139966
	.word	-1158763020
	.word	310820559
	.word	-1226126567
	.word	643875328
	.word	1969602020
	.word	1680088954
	.word	-2109154135
	.word	-1011634842
	.word	672358534
	.word	198762408
	.word	896343282
	.word	276269502
	.word	-1280120370
	.word	84060815
	.word	197145886
	.word	376173866
	.word	-351076478
	.word	-481793775
	.word	-749898474
	.word	1316698879
	.word	1598252827
	.word	-1661542345
	.word	1233235075
	.word	859989710
	.word	-1936506441
	.word	-791128896
	.word	-885363576
	.word	1203513385
	.word	1193654839
	.word	-1502948821
	.word	2060853022
	.word	207403770
	.word	1144516871
	.word	-1226335902
	.word	1121114134
	.word	177607304
	.word	-509230994
	.word	326409831
	.word	1929119770
	.word	-1311688201
	.word	-111659195
	.word	-820388008
	.word	-1094453418
	.word	-1066485200
	.word	119610148
	.word	1170376745
	.word	-916573825
	.word	-1131494127
	.word	951863017
	.word	-957941228
	.word	-1159178166
	.word	-1387348922
	.word	1183797387
	.word	2015970143
	.word	-249292741
	.word	-2111980897
	.word	-1342828556
	.word	-366195091
	.word	384012900
	.word	-1839969653
	.word	10178499
	.word	-1415148307
	.word	-1698074760
	.word	111523738
	.word	-1299878290
	.word	451689641
	.word	-1098676600
	.word	235406569
	.word	1441906262
	.word	-404408773
	.word	-1281232291
	.word	-136397947
	.word	1644036924
	.word	376726067
	.word	1006849064
	.word	-630387596
	.word	2041234796
	.word	1021632941
	.word	1374734338
	.word	-1728515238
	.word	371631263
	.word	-287823063
	.word	490221539
	.word	206551450
	.word	-1154328712
	.word	1053219195
	.word	1853335209
	.word	-882537636
	.word	-732811065
	.word	735133835
	.word	1623211703
	.word	-1190752904
	.word	-1556654860
	.word	-198129539
	.word	-928574718
	.word	-1184003022
	.word	-338368578
	.word	-1098146515
	.word	2038037254
	.word	-417180920
	.word	-1955213449
	.word	300912036
	.word	-528234408
	.word	-1922336657
	.word	1516443558
	.word	-94570592
	.word	1574567987
	.word	-225525840
	.word	-172375280
	.word	-1595227520
	.word	146372218
	.word	-1546005840
	.word	2043888151
	.word	35287437
	.word	-1698286742
	.word	655490400
	.word	1132482787
	.word	110692520
	.word	1031794116
	.word	-2106774545
	.word	1324057718
	.word	1217253157
	.word	919197030
	.word	686247489
	.word	-1033827638
	.word	1028237775
	.word	-1159480865
	.word	-1235251738
	.word	-1834045596
	.word	986174950
	.word	-1633155831
	.word	-232062595
	.word	-1541980304
	.word	-585230653
	.word	367056889
	.word	1353824391
	.word	731860949
	.word	1650113154
	.word	1778481506
	.word	784341916
	.word	357075625
	.word	-686364864
	.word	1074092588
	.word	-1814914526
	.word	-483541094
	.word	92751289
	.word	877911070
	.word	-694605458
	.word	1231880047
	.word	480201094
	.word	-538776313
	.word	-1200471343
	.word	434011822
	.word	87971354
	.word	363687820
	.word	1717726236
	.word	1901380172
	.word	-368563414
	.word	-1813305031
	.word	400339184
	.word	1490350766
	.word	-1633512197
	.word	1389319756
	.word	-1736180122
	.word	784598401
	.word	1983468483
	.word	30828846
	.word	-744439544
	.word	-1578691058
	.word	-453845082
	.word	1765724805
	.word	1955612312
	.word	1277890269
	.word	1333098070
	.word	1564029816
	.word	-1590549681
	.word	1026694237
	.word	-1007296108
	.word	1260819201
	.word	-945880529
	.word	1016692350
	.word	1582273796
	.word	1073413053
	.word	1995943182
	.word	694588404
	.word	1025494639
	.word	-971094594
	.word	-743068876
	.word	-148112969
	.word	453260480
	.word	1316140391
	.word	1435673405
	.word	-1256025343
	.word	-808277889
	.word	1622062951
	.word	403978347
	.word	817677117
	.word	950059133
	.word	-48888078
	.word	-1016901221
	.word	1486738320
	.word	1417279718
	.word	481875527
	.word	-1745002071
	.word	-361276940
	.word	760697757
	.word	1452955855
	.word	-397515859
	.word	1177426808
	.word	1702951038
	.word	-209618668
	.word	-1847962124
	.word	1084371187
	.word	-778531019
	.word	-1226630958
	.word	1073369276
	.word	1027665953
	.word	-1010778706
	.word	1230553676
	.word	1368340146
	.word	-2068720784
	.word	267243139
	.word	-2020746534
	.word	-224233017
	.word	-1797252120
	.word	-1871614133
	.word	-1790211421
	.align	2
	.type	cast_sbox8, %object
	.size	cast_sbox8, 1024
cast_sbox8:
	.word	-501862387
	.word	-1143078916
	.word	-1477715267
	.word	895778965
	.word	2005530807
	.word	-423554533
	.word	237245952
	.word	86829237
	.word	296341424
	.word	-443207919
	.word	-320366326
	.word	-1819881100
	.word	709006108
	.word	1994621201
	.word	-1322389702
	.word	937287164
	.word	-560275791
	.word	168608556
	.word	-1105629143
	.word	-2069886656
	.word	-1155253745
	.word	-1261357105
	.word	-1269925392
	.word	77524477
	.word	185966941
	.word	1208824168
	.word	-1950622118
	.word	1721625922
	.word	-940775375
	.word	1066374631
	.word	1927223579
	.word	1971335949
	.word	-1811463599
	.word	1551748602
	.word	-1413583517
	.word	-1438637724
	.word	-1291725814
	.word	48746954
	.word	1398218158
	.word	2050065058
	.word	313056748
	.word	-39177379
	.word	393167848
	.word	1912293076
	.word	940740642
	.word	-829121836
	.word	-1203279443
	.word	-1772365726
	.word	-2097950635
	.word	1727764327
	.word	364383054
	.word	492521376
	.word	1291706479
	.word	-1030830920
	.word	1474851438
	.word	1685747964
	.word	-1719247548
	.word	1619776915
	.word	1814040067
	.word	970743798
	.word	1561002147
	.word	-1369198606
	.word	2123093554
	.word	1880132620
	.word	-1143779255
	.word	697884420
	.word	-1743981526
	.word	-1687292783
	.word	-1635852973
	.word	110200136
	.word	1489731079
	.word	997519150
	.word	1378877361
	.word	-767096628
	.word	478029773
	.word	-1528094373
	.word	1022481122
	.word	431258168
	.word	1112503832
	.word	897933369
	.word	-1659379993
	.word	669726182
	.word	-911214981
	.word	918222264
	.word	163866573
	.word	-1047981903
	.word	-518144133
	.word	114105080
	.word	1903216136
	.word	761148244
	.word	-723629734
	.word	1690750982
	.word	-1128217044
	.word	1037045171
	.word	1888456500
	.word	2010454850
	.word	642736655
	.word	616092351
	.word	365016990
	.word	1185228132
	.word	-120068786
	.word	1043824992
	.word	2023083429
	.word	-2053368411
	.word	-431646840
	.word	-1015298209
	.word	-620250612
	.word	108438443
	.word	2132974366
	.word	830746235
	.word	606445527
	.word	-121703310
	.word	-2090861384
	.word	1844756978
	.word	-1762283115
	.word	-49614596
	.word	-1325526196
	.word	-498045635
	.word	1335562986
	.word	-233442779
	.word	-1574734993
	.word	-1615543256
	.word	634407289
	.word	885462008
	.word	-1000242809
	.word	-361075048
	.word	2094100220
	.word	339117932
	.word	-246136569
	.word	-1092686316
	.word	1458155303
	.word	-1605721023
	.word	1022871705
	.word	-1829979418
	.word	-580451987
	.word	353796843
	.word	-1472008481
	.word	-38117196
	.word	-242189451
	.word	551748367
	.word	618185374
	.word	-516331717
	.word	-274317384
	.word	1904685140
	.word	-1225601221
	.word	-1624087486
	.word	-887774004
	.word	-1340455676
	.word	-236683891
	.word	-2075517979
	.word	-1159208996
	.word	1120655984
	.word	-847401462
	.word	1474845562
	.word	-717268234
	.word	550456716
	.word	-828058584
	.word	2043752612
	.word	881257467
	.word	869518812
	.word	2005220179
	.word	938474677
	.word	-989427848
	.word	-444550170
	.word	1315485940
	.word	-976702594
	.word	226533026
	.word	965733244
	.word	321539988
	.word	1136104718
	.word	804158748
	.word	573969341
	.word	-586757470
	.word	937399083
	.word	-1004240247
	.word	-1393300541
	.word	1461057207
	.word	-281773859
	.word	-228105873
	.word	-1052193820
	.word	-1873641122
	.word	1581322155
	.word	-1266015131
	.word	786071460
	.word	-394575644
	.word	-376528764
	.word	1485433313
	.word	-271347460
	.word	-586689701
	.word	-616016236
	.word	953673138
	.word	1467089153
	.word	1930354364
	.word	1533292819
	.word	-1802404273
	.word	1346121658
	.word	1685000834
	.word	1965281866
	.word	-529033579
	.word	-104760689
	.word	2052792609
	.word	-779634538
	.word	690371149
	.word	-1169093409
	.word	-2114683745
	.word	-1391369235
	.word	-361014939
	.word	436236910
	.word	289419410
	.word	14314871
	.word	1242357089
	.word	-1390459389
	.word	1616633776
	.word	-1628585116
	.word	585885352
	.word	-823668086
	.word	-1595459936
	.word	1432659641
	.word	277164553
	.word	-940863689
	.word	770115018
	.word	-1991158001
	.word	-553024981
	.word	-1117185428
	.word	-1441602318
	.word	-2025513969
	.word	-520707462
	.word	987383833
	.word	1290892879
	.word	225909803
	.word	1741533526
	.word	890078084
	.word	1496906255
	.word	1111072499
	.word	916028167
	.word	243534141
	.word	1252605537
	.word	-2090805125
	.word	531204876
	.word	290011180
	.word	-378133083
	.word	102027703
	.word	237315147
	.word	209093447
	.word	1486785922
	.word	220223953
	.word	-1536771298
	.word	-119928190
	.word	82940208
	.word	-1167176000
	.word	-1725542044
	.word	518464269
	.word	1353887104
	.word	-353474559
	.word	-1917672829
	.word	-359926370
	.text
	.align	2
	.global	cast128_encrypt
	.arch armv4t
	.syntax unified
	.arm
	.fpu softvfp
	.type	cast128_encrypt, %function
cast128_encrypt:
	@ Function supports interworking.
	@ args = 0, pretend = 0, frame = 32
	@ frame_needed = 1, uses_anonymous_args = 0
	@ link register save eliminated.
	str	fp, [sp, #-4]!
	add	fp, sp, #0
	sub	sp, sp, #36
	str	r0, [fp, #-24]
	str	r1, [fp, #-28]
	str	r2, [fp, #-32]
	str	r3, [fp, #-36]
	b	.L2
.L4:
	ldr	r3, [fp, #-36]
	ldrb	r3, [r3]	@ zero_extendqisi2
	lsl	r2, r3, #24
	ldr	r3, [fp, #-36]
	add	r3, r3, #1
	ldrb	r3, [r3]	@ zero_extendqisi2
	lsl	r3, r3, #16
	orr	r2, r2, r3
	ldr	r3, [fp, #-36]
	add	r3, r3, #2
	ldrb	r3, [r3]	@ zero_extendqisi2
	lsl	r3, r3, #8
	orr	r3, r2, r3
	ldr	r2, [fp, #-36]
	add	r2, r2, #3
	ldrb	r2, [r2]	@ zero_extendqisi2
	orr	r3, r3, r2
	str	r3, [fp, #-8]
	ldr	r3, [fp, #-36]
	add	r3, r3, #4
	ldrb	r3, [r3]	@ zero_extendqisi2
	lsl	r2, r3, #24
	ldr	r3, [fp, #-36]
	add	r3, r3, #5
	ldrb	r3, [r3]	@ zero_extendqisi2
	lsl	r3, r3, #16
	orr	r2, r2, r3
	ldr	r3, [fp, #-36]
	add	r3, r3, #6
	ldrb	r3, [r3]	@ zero_extendqisi2
	lsl	r3, r3, #8
	orr	r3, r2, r3
	ldr	r2, [fp, #-36]
	add	r2, r2, #7
	ldrb	r2, [r2]	@ zero_extendqisi2
	orr	r3, r3, r2
	str	r3, [fp, #-12]
	ldr	r3, [fp, #-24]
	ldr	r3, [r3, #20]
	ldr	r2, [fp, #-12]
	add	r3, r2, r3
	str	r3, [fp, #-16]
	ldr	r3, [fp, #-24]
	ldrb	r3, [r3, #4]	@ zero_extendqisi2
	ldr	r2, [fp, #-16]
	rsb	r3, r3, #32
	ror	r3, r2, r3
	str	r3, [fp, #-16]
	ldr	r3, [fp, #-16]
	lsr	r3, r3, #24
	and	r3, r3, #255
	mov	r2, r3
	ldr	r3, .L5
	ldr	r2, [r3, r2, lsl #2]
	ldr	r3, [fp, #-16]
	lsr	r3, r3, #16
	and	r3, r3, #255
	mov	r1, r3
	ldr	r3, .L5+4
	ldr	r3, [r3, r1, lsl #2]
	eor	r2, r2, r3
	ldr	r3, [fp, #-16]
	lsr	r3, r3, #8
	and	r3, r3, #255
	mov	r1, r3
	ldr	r3, .L5+8
	ldr	r3, [r3, r1, lsl #2]
	sub	r2, r2, r3
	ldr	r3, [fp, #-16]
	and	r3, r3, #255
	mov	r1, r3
	ldr	r3, .L5+12
	ldr	r3, [r3, r1, lsl #2]
	add	r3, r2, r3
	ldr	r2, [fp, #-8]
	eor	r3, r3, r2
	str	r3, [fp, #-8]
	ldr	r3, [fp, #-24]
	ldr	r3, [r3, #24]
	ldr	r2, [fp, #-8]
	eor	r3, r3, r2
	str	r3, [fp, #-16]
	ldr	r3, [fp, #-24]
	ldrb	r3, [r3, #5]	@ zero_extendqisi2
	ldr	r2, [fp, #-16]
	rsb	r3, r3, #32
	ror	r3, r2, r3
	str	r3, [fp, #-16]
	ldr	r3, [fp, #-16]
	lsr	r3, r3, #24
	and	r3, r3, #255
	mov	r2, r3
	ldr	r3, .L5
	ldr	r2, [r3, r2, lsl #2]
	ldr	r3, [fp, #-16]
	lsr	r3, r3, #16
	and	r3, r3, #255
	mov	r1, r3
	ldr	r3, .L5+4
	ldr	r3, [r3, r1, lsl #2]
	sub	r2, r2, r3
	ldr	r3, [fp, #-16]
	lsr	r3, r3, #8
	and	r3, r3, #255
	mov	r1, r3
	ldr	r3, .L5+8
	ldr	r3, [r3, r1, lsl #2]
	add	r2, r2, r3
	ldr	r3, [fp, #-16]
	and	r3, r3, #255
	mov	r1, r3
	ldr	r3, .L5+12
	ldr	r3, [r3, r1, lsl #2]
	eor	r3, r3, r2
	ldr	r2, [fp, #-12]
	eor	r3, r3, r2
	str	r3, [fp, #-12]
	ldr	r3, [fp, #-24]
	ldr	r2, [r3, #28]
	ldr	r3, [fp, #-12]
	sub	r3, r2, r3
	str	r3, [fp, #-16]
	ldr	r3, [fp, #-24]
	ldrb	r3, [r3, #6]	@ zero_extendqisi2
	ldr	r2, [fp, #-16]
	rsb	r3, r3, #32
	ror	r3, r2, r3
	str	r3, [fp, #-16]
	ldr	r3, [fp, #-16]
	lsr	r3, r3, #24
	and	r3, r3, #255
	mov	r2, r3
	ldr	r3, .L5
	ldr	r2, [r3, r2, lsl #2]
	ldr	r3, [fp, #-16]
	lsr	r3, r3, #16
	and	r3, r3, #255
	mov	r1, r3
	ldr	r3, .L5+4
	ldr	r3, [r3, r1, lsl #2]
	add	r2, r2, r3
	ldr	r3, [fp, #-16]
	lsr	r3, r3, #8
	and	r3, r3, #255
	mov	r1, r3
	ldr	r3, .L5+8
	ldr	r3, [r3, r1, lsl #2]
	eor	r2, r2, r3
	ldr	r3, [fp, #-16]
	and	r3, r3, #255
	mov	r1, r3
	ldr	r3, .L5+12
	ldr	r3, [r3, r1, lsl #2]
	sub	r3, r2, r3
	ldr	r2, [fp, #-8]
	eor	r3, r3, r2
	str	r3, [fp, #-8]
	ldr	r3, [fp, #-24]
	ldr	r3, [r3, #32]
	ldr	r2, [fp, #-8]
	add	r3, r2, r3
	str	r3, [fp, #-16]
	ldr	r3, [fp, #-24]
	ldrb	r3, [r3, #7]	@ zero_extendqisi2
	ldr	r2, [fp, #-16]
	rsb	r3, r3, #32
	ror	r3, r2, r3
	str	r3, [fp, #-16]
	ldr	r3, [fp, #-16]
	lsr	r3, r3, #24
	and	r3, r3, #255
	mov	r2, r3
	ldr	r3, .L5
	ldr	r2, [r3, r2, lsl #2]
	ldr	r3, [fp, #-16]
	lsr	r3, r3, #16
	and	r3, r3, #255
	mov	r1, r3
	ldr	r3, .L5+4
	ldr	r3, [r3, r1, lsl #2]
	eor	r2, r2, r3
	ldr	r3, [fp, #-16]
	lsr	r3, r3, #8
	and	r3, r3, #255
	mov	r1, r3
	ldr	r3, .L5+8
	ldr	r3, [r3, r1, lsl #2]
	sub	r2, r2, r3
	ldr	r3, [fp, #-16]
	and	r3, r3, #255
	mov	r1, r3
	ldr	r3, .L5+12
	ldr	r3, [r3, r1, lsl #2]
	add	r3, r2, r3
	ldr	r2, [fp, #-12]
	eor	r3, r3, r2
	str	r3, [fp, #-12]
	ldr	r3, [fp, #-24]
	ldr	r3, [r3, #36]
	ldr	r2, [fp, #-12]
	eor	r3, r3, r2
	str	r3, [fp, #-16]
	ldr	r3, [fp, #-24]
	ldrb	r3, [r3, #8]	@ zero_extendqisi2
	ldr	r2, [fp, #-16]
	rsb	r3, r3, #32
	ror	r3, r2, r3
	str	r3, [fp, #-16]
	ldr	r3, [fp, #-16]
	lsr	r3, r3, #24
	and	r3, r3, #255
	mov	r2, r3
	ldr	r3, .L5
	ldr	r2, [r3, r2, lsl #2]
	ldr	r3, [fp, #-16]
	lsr	r3, r3, #16
	and	r3, r3, #255
	mov	r1, r3
	ldr	r3, .L5+4
	ldr	r3, [r3, r1, lsl #2]
	sub	r2, r2, r3
	ldr	r3, [fp, #-16]
	lsr	r3, r3, #8
	and	r3, r3, #255
	mov	r1, r3
	ldr	r3, .L5+8
	ldr	r3, [r3, r1, lsl #2]
	add	r2, r2, r3
	ldr	r3, [fp, #-16]
	and	r3, r3, #255
	mov	r1, r3
	ldr	r3, .L5+12
	ldr	r3, [r3, r1, lsl #2]
	eor	r3, r3, r2
	ldr	r2, [fp, #-8]
	eor	r3, r3, r2
	str	r3, [fp, #-8]
	ldr	r3, [fp, #-24]
	ldr	r2, [r3, #40]
	ldr	r3, [fp, #-8]
	sub	r3, r2, r3
	str	r3, [fp, #-16]
	ldr	r3, [fp, #-24]
	ldrb	r3, [r3, #9]	@ zero_extendqisi2
	ldr	r2, [fp, #-16]
	rsb	r3, r3, #32
	ror	r3, r2, r3
	str	r3, [fp, #-16]
	ldr	r3, [fp, #-16]
	lsr	r3, r3, #24
	and	r3, r3, #255
	mov	r2, r3
	ldr	r3, .L5
	ldr	r2, [r3, r2, lsl #2]
	ldr	r3, [fp, #-16]
	lsr	r3, r3, #16
	and	r3, r3, #255
	mov	r1, r3
	ldr	r3, .L5+4
	ldr	r3, [r3, r1, lsl #2]
	add	r2, r2, r3
	ldr	r3, [fp, #-16]
	lsr	r3, r3, #8
	and	r3, r3, #255
	mov	r1, r3
	ldr	r3, .L5+8
	ldr	r3, [r3, r1, lsl #2]
	eor	r2, r2, r3
	ldr	r3, [fp, #-16]
	and	r3, r3, #255
	mov	r1, r3
	ldr	r3, .L5+12
	ldr	r3, [r3, r1, lsl #2]
	sub	r3, r2, r3
	ldr	r2, [fp, #-12]
	eor	r3, r3, r2
	str	r3, [fp, #-12]
	ldr	r3, [fp, #-24]
	ldr	r3, [r3, #44]
	ldr	r2, [fp, #-12]
	add	r3, r2, r3
	str	r3, [fp, #-16]
	ldr	r3, [fp, #-24]
	ldrb	r3, [r3, #10]	@ zero_extendqisi2
	ldr	r2, [fp, #-16]
	rsb	r3, r3, #32
	ror	r3, r2, r3
	str	r3, [fp, #-16]
	ldr	r3, [fp, #-16]
	lsr	r3, r3, #24
	and	r3, r3, #255
	mov	r2, r3
	ldr	r3, .L5
	ldr	r2, [r3, r2, lsl #2]
	ldr	r3, [fp, #-16]
	lsr	r3, r3, #16
	and	r3, r3, #255
	mov	r1, r3
	ldr	r3, .L5+4
	ldr	r3, [r3, r1, lsl #2]
	eor	r2, r2, r3
	ldr	r3, [fp, #-16]
	lsr	r3, r3, #8
	and	r3, r3, #255
	mov	r1, r3
	ldr	r3, .L5+8
	ldr	r3, [r3, r1, lsl #2]
	sub	r2, r2, r3
	ldr	r3, [fp, #-16]
	and	r3, r3, #255
	mov	r1, r3
	ldr	r3, .L5+12
	ldr	r3, [r3, r1, lsl #2]
	add	r3, r2, r3
	ldr	r2, [fp, #-8]
	eor	r3, r3, r2
	str	r3, [fp, #-8]
	ldr	r3, [fp, #-24]
	ldr	r3, [r3, #48]
	ldr	r2, [fp, #-8]
	eor	r3, r3, r2
	str	r3, [fp, #-16]
	ldr	r3, [fp, #-24]
	ldrb	r3, [r3, #11]	@ zero_extendqisi2
	ldr	r2, [fp, #-16]
	rsb	r3, r3, #32
	ror	r3, r2, r3
	str	r3, [fp, #-16]
	ldr	r3, [fp, #-16]
	lsr	r3, r3, #24
	and	r3, r3, #255
	mov	r2, r3
	ldr	r3, .L5
	ldr	r2, [r3, r2, lsl #2]
	ldr	r3, [fp, #-16]
	lsr	r3, r3, #16
	and	r3, r3, #255
	mov	r1, r3
	ldr	r3, .L5+4
	ldr	r3, [r3, r1, lsl #2]
	sub	r2, r2, r3
	ldr	r3, [fp, #-16]
	lsr	r3, r3, #8
	and	r3, r3, #255
	mov	r1, r3
	ldr	r3, .L5+8
	ldr	r3, [r3, r1, lsl #2]
	add	r2, r2, r3
	ldr	r3, [fp, #-16]
	and	r3, r3, #255
	mov	r1, r3
	ldr	r3, .L5+12
	ldr	r3, [r3, r1, lsl #2]
	eor	r3, r3, r2
	ldr	r2, [fp, #-12]
	eor	r3, r3, r2
	str	r3, [fp, #-12]
	ldr	r3, [fp, #-24]
	ldr	r2, [r3, #52]
	ldr	r3, [fp, #-12]
	sub	r3, r2, r3
	str	r3, [fp, #-16]
	ldr	r3, [fp, #-24]
	ldrb	r3, [r3, #12]	@ zero_extendqisi2
	ldr	r2, [fp, #-16]
	rsb	r3, r3, #32
	ror	r3, r2, r3
	str	r3, [fp, #-16]
	ldr	r3, [fp, #-16]
	lsr	r3, r3, #24
	and	r3, r3, #255
	mov	r2, r3
	ldr	r3, .L5
	ldr	r2, [r3, r2, lsl #2]
	ldr	r3, [fp, #-16]
	lsr	r3, r3, #16
	and	r3, r3, #255
	mov	r1, r3
	ldr	r3, .L5+4
	ldr	r3, [r3, r1, lsl #2]
	add	r2, r2, r3
	ldr	r3, [fp, #-16]
	lsr	r3, r3, #8
	and	r3, r3, #255
	mov	r1, r3
	ldr	r3, .L5+8
	ldr	r3, [r3, r1, lsl #2]
	eor	r2, r2, r3
	ldr	r3, [fp, #-16]
	and	r3, r3, #255
	mov	r1, r3
	ldr	r3, .L5+12
	ldr	r3, [r3, r1, lsl #2]
	sub	r3, r2, r3
	ldr	r2, [fp, #-8]
	eor	r3, r3, r2
	str	r3, [fp, #-8]
	ldr	r3, [fp, #-24]
	ldr	r3, [r3, #56]
	ldr	r2, [fp, #-8]
	add	r3, r2, r3
	str	r3, [fp, #-16]
	ldr	r3, [fp, #-24]
	ldrb	r3, [r3, #13]	@ zero_extendqisi2
	ldr	r2, [fp, #-16]
	rsb	r3, r3, #32
	ror	r3, r2, r3
	str	r3, [fp, #-16]
	ldr	r3, [fp, #-16]
	lsr	r3, r3, #24
	and	r3, r3, #255
	mov	r2, r3
	ldr	r3, .L5
	ldr	r2, [r3, r2, lsl #2]
	ldr	r3, [fp, #-16]
	lsr	r3, r3, #16
	and	r3, r3, #255
	mov	r1, r3
	ldr	r3, .L5+4
	ldr	r3, [r3, r1, lsl #2]
	eor	r2, r2, r3
	ldr	r3, [fp, #-16]
	lsr	r3, r3, #8
	and	r3, r3, #255
	mov	r1, r3
	ldr	r3, .L5+8
	ldr	r3, [r3, r1, lsl #2]
	sub	r2, r2, r3
	ldr	r3, [fp, #-16]
	and	r3, r3, #255
	mov	r1, r3
	ldr	r3, .L5+12
	ldr	r3, [r3, r1, lsl #2]
	add	r3, r2, r3
	ldr	r2, [fp, #-12]
	eor	r3, r3, r2
	str	r3, [fp, #-12]
	ldr	r3, [fp, #-24]
	ldr	r3, [r3, #60]
	ldr	r2, [fp, #-12]
	eor	r3, r3, r2
	str	r3, [fp, #-16]
	ldr	r3, [fp, #-24]
	ldrb	r3, [r3, #14]	@ zero_extendqisi2
	ldr	r2, [fp, #-16]
	rsb	r3, r3, #32
	ror	r3, r2, r3
	str	r3, [fp, #-16]
	ldr	r3, [fp, #-16]
	lsr	r3, r3, #24
	and	r3, r3, #255
	mov	r2, r3
	ldr	r3, .L5
	ldr	r2, [r3, r2, lsl #2]
	ldr	r3, [fp, #-16]
	lsr	r3, r3, #16
	and	r3, r3, #255
	mov	r1, r3
	ldr	r3, .L5+4
	ldr	r3, [r3, r1, lsl #2]
	sub	r2, r2, r3
	ldr	r3, [fp, #-16]
	lsr	r3, r3, #8
	and	r3, r3, #255
	mov	r1, r3
	ldr	r3, .L5+8
	ldr	r3, [r3, r1, lsl #2]
	add	r2, r2, r3
	ldr	r3, [fp, #-16]
	and	r3, r3, #255
	mov	r1, r3
	ldr	r3, .L5+12
	ldr	r3, [r3, r1, lsl #2]
	eor	r3, r3, r2
	ldr	r2, [fp, #-8]
	eor	r3, r3, r2
	str	r3, [fp, #-8]
	ldr	r3, [fp, #-24]
	ldr	r2, [r3, #64]
	ldr	r3, [fp, #-8]
	sub	r3, r2, r3
	str	r3, [fp, #-16]
	ldr	r3, [fp, #-24]
	ldrb	r3, [r3, #15]	@ zero_extendqisi2
	ldr	r2, [fp, #-16]
	rsb	r3, r3, #32
	ror	r3, r2, r3
	str	r3, [fp, #-16]
	ldr	r3, [fp, #-16]
	lsr	r3, r3, #24
	and	r3, r3, #255
	mov	r2, r3
	ldr	r3, .L5
	ldr	r2, [r3, r2, lsl #2]
	ldr	r3, [fp, #-16]
	lsr	r3, r3, #16
	and	r3, r3, #255
	mov	r1, r3
	ldr	r3, .L5+4
	ldr	r3, [r3, r1, lsl #2]
	add	r2, r2, r3
	ldr	r3, [fp, #-16]
	lsr	r3, r3, #8
	and	r3, r3, #255
	mov	r1, r3
	ldr	r3, .L5+8
	ldr	r3, [r3, r1, lsl #2]
	eor	r2, r2, r3
	ldr	r3, [fp, #-16]
	and	r3, r3, #255
	mov	r1, r3
	ldr	r3, .L5+12
	ldr	r3, [r3, r1, lsl #2]
	sub	r3, r2, r3
	ldr	r2, [fp, #-12]
	eor	r3, r3, r2
	str	r3, [fp, #-12]
	ldr	r3, [fp, #-24]
	ldr	r3, [r3]
	and	r3, r3, #16
	cmp	r3, #0
	beq	.L3
	ldr	r3, [fp, #-24]
	ldr	r3, [r3, #68]
	ldr	r2, [fp, #-12]
	add	r3, r2, r3
	str	r3, [fp, #-16]
	ldr	r3, [fp, #-24]
	ldrb	r3, [r3, #16]	@ zero_extendqisi2
	ldr	r2, [fp, #-16]
	rsb	r3, r3, #32
	ror	r3, r2, r3
	str	r3, [fp, #-16]
	ldr	r3, [fp, #-16]
	lsr	r3, r3, #24
	and	r3, r3, #255
	mov	r2, r3
	ldr	r3, .L5
	ldr	r2, [r3, r2, lsl #2]
	ldr	r3, [fp, #-16]
	lsr	r3, r3, #16
	and	r3, r3, #255
	mov	r1, r3
	ldr	r3, .L5+4
	ldr	r3, [r3, r1, lsl #2]
	eor	r2, r2, r3
	ldr	r3, [fp, #-16]
	lsr	r3, r3, #8
	and	r3, r3, #255
	mov	r1, r3
	ldr	r3, .L5+8
	ldr	r3, [r3, r1, lsl #2]
	sub	r2, r2, r3
	ldr	r3, [fp, #-16]
	and	r3, r3, #255
	mov	r1, r3
	ldr	r3, .L5+12
	ldr	r3, [r3, r1, lsl #2]
	add	r3, r2, r3
	ldr	r2, [fp, #-8]
	eor	r3, r3, r2
	str	r3, [fp, #-8]
	ldr	r3, [fp, #-24]
	ldr	r3, [r3, #72]
	ldr	r2, [fp, #-8]
	eor	r3, r3, r2
	str	r3, [fp, #-16]
	ldr	r3, [fp, #-24]
	ldrb	r3, [r3, #17]	@ zero_extendqisi2
	ldr	r2, [fp, #-16]
	rsb	r3, r3, #32
	ror	r3, r2, r3
	str	r3, [fp, #-16]
	ldr	r3, [fp, #-16]
	lsr	r3, r3, #24
	and	r3, r3, #255
	mov	r2, r3
	ldr	r3, .L5
	ldr	r2, [r3, r2, lsl #2]
	ldr	r3, [fp, #-16]
	lsr	r3, r3, #16
	and	r3, r3, #255
	mov	r1, r3
	ldr	r3, .L5+4
	ldr	r3, [r3, r1, lsl #2]
	sub	r2, r2, r3
	ldr	r3, [fp, #-16]
	lsr	r3, r3, #8
	and	r3, r3, #255
	mov	r1, r3
	ldr	r3, .L5+8
	ldr	r3, [r3, r1, lsl #2]
	add	r2, r2, r3
	ldr	r3, [fp, #-16]
	and	r3, r3, #255
	mov	r1, r3
	ldr	r3, .L5+12
	ldr	r3, [r3, r1, lsl #2]
	eor	r3, r3, r2
	ldr	r2, [fp, #-12]
	eor	r3, r3, r2
	str	r3, [fp, #-12]
	ldr	r3, [fp, #-24]
	ldr	r2, [r3, #76]
	ldr	r3, [fp, #-12]
	sub	r3, r2, r3
	str	r3, [fp, #-16]
	ldr	r3, [fp, #-24]
	ldrb	r3, [r3, #18]	@ zero_extendqisi2
	ldr	r2, [fp, #-16]
	rsb	r3, r3, #32
	ror	r3, r2, r3
	str	r3, [fp, #-16]
	ldr	r3, [fp, #-16]
	lsr	r3, r3, #24
	and	r3, r3, #255
	mov	r2, r3
	ldr	r3, .L5
	ldr	r2, [r3, r2, lsl #2]
	ldr	r3, [fp, #-16]
	lsr	r3, r3, #16
	and	r3, r3, #255
	mov	r1, r3
	ldr	r3, .L5+4
	ldr	r3, [r3, r1, lsl #2]
	add	r2, r2, r3
	ldr	r3, [fp, #-16]
	lsr	r3, r3, #8
	and	r3, r3, #255
	mov	r1, r3
	ldr	r3, .L5+8
	ldr	r3, [r3, r1, lsl #2]
	eor	r2, r2, r3
	ldr	r3, [fp, #-16]
	and	r3, r3, #255
	mov	r1, r3
	ldr	r3, .L5+12
	ldr	r3, [r3, r1, lsl #2]
	sub	r3, r2, r3
	ldr	r2, [fp, #-8]
	eor	r3, r3, r2
	str	r3, [fp, #-8]
	ldr	r3, [fp, #-24]
	ldr	r3, [r3, #80]
	ldr	r2, [fp, #-8]
	add	r3, r2, r3
	str	r3, [fp, #-16]
	ldr	r3, [fp, #-24]
	ldrb	r3, [r3, #19]	@ zero_extendqisi2
	ldr	r2, [fp, #-16]
	rsb	r3, r3, #32
	ror	r3, r2, r3
	str	r3, [fp, #-16]
	ldr	r3, [fp, #-16]
	lsr	r3, r3, #24
	and	r3, r3, #255
	mov	r2, r3
	ldr	r3, .L5
	ldr	r2, [r3, r2, lsl #2]
	ldr	r3, [fp, #-16]
	lsr	r3, r3, #16
	and	r3, r3, #255
	mov	r1, r3
	ldr	r3, .L5+4
	ldr	r3, [r3, r1, lsl #2]
	eor	r2, r2, r3
	ldr	r3, [fp, #-16]
	lsr	r3, r3, #8
	and	r3, r3, #255
	mov	r1, r3
	ldr	r3, .L5+8
	ldr	r3, [r3, r1, lsl #2]
	sub	r2, r2, r3
	ldr	r3, [fp, #-16]
	and	r3, r3, #255
	mov	r1, r3
	ldr	r3, .L5+12
	ldr	r3, [r3, r1, lsl #2]
	add	r3, r2, r3
	ldr	r2, [fp, #-12]
	eor	r3, r3, r2
	str	r3, [fp, #-12]
.L3:
	ldr	r3, [fp, #-12]
	lsr	r3, r3, #24
	and	r2, r3, #255
	ldr	r3, [fp, #-32]
	strb	r2, [r3]
	ldr	r3, [fp, #-12]
	lsr	r2, r3, #16
	ldr	r3, [fp, #-32]
	add	r3, r3, #1
	and	r2, r2, #255
	strb	r2, [r3]
	ldr	r3, [fp, #-12]
	lsr	r2, r3, #8
	ldr	r3, [fp, #-32]
	add	r3, r3, #2
	and	r2, r2, #255
	strb	r2, [r3]
	ldr	r3, [fp, #-32]
	add	r3, r3, #3
	ldr	r2, [fp, #-12]
	and	r2, r2, #255
	strb	r2, [r3]
	ldr	r3, [fp, #-8]
	lsr	r2, r3, #24
	ldr	r3, [fp, #-32]
	add	r3, r3, #4
	and	r2, r2, #255
	strb	r2, [r3]
	ldr	r3, [fp, #-8]
	lsr	r2, r3, #16
	ldr	r3, [fp, #-32]
	add	r3, r3, #5
	and	r2, r2, #255
	strb	r2, [r3]
	ldr	r3, [fp, #-8]
	lsr	r2, r3, #8
	ldr	r3, [fp, #-32]
	add	r3, r3, #6
	and	r2, r2, #255
	strb	r2, [r3]
	ldr	r3, [fp, #-32]
	add	r3, r3, #7
	ldr	r2, [fp, #-8]
	and	r2, r2, #255
	strb	r2, [r3]
	ldr	r3, [fp, #-28]
	sub	r3, r3, #8
	str	r3, [fp, #-28]
	ldr	r3, [fp, #-32]
	add	r3, r3, #8
	str	r3, [fp, #-32]
	ldr	r3, [fp, #-36]
	add	r3, r3, #8
	str	r3, [fp, #-36]
.L2:
	ldr	r3, [fp, #-28]
	cmp	r3, #0
	bne	.L4
	nop
	nop
	add	sp, fp, #0
	@ sp needed
	ldr	fp, [sp], #4
	bx	lr
.L6:
	.align	2
.L5:
	.word	cast_sbox1
	.word	cast_sbox2
	.word	cast_sbox3
	.word	cast_sbox4
	.size	cast128_encrypt, .-cast128_encrypt
	.align	2
	.global	cast128_decrypt
	.syntax unified
	.arm
	.fpu softvfp
	.type	cast128_decrypt, %function
cast128_decrypt:
	@ Function supports interworking.
	@ args = 0, pretend = 0, frame = 32
	@ frame_needed = 1, uses_anonymous_args = 0
	@ link register save eliminated.
	str	fp, [sp, #-4]!
	add	fp, sp, #0
	sub	sp, sp, #36
	str	r0, [fp, #-24]
	str	r1, [fp, #-28]
	str	r2, [fp, #-32]
	str	r3, [fp, #-36]
	b	.L8
.L10:
	ldr	r3, [fp, #-36]
	ldrb	r3, [r3]	@ zero_extendqisi2
	lsl	r2, r3, #24
	ldr	r3, [fp, #-36]
	add	r3, r3, #1
	ldrb	r3, [r3]	@ zero_extendqisi2
	lsl	r3, r3, #16
	orr	r2, r2, r3
	ldr	r3, [fp, #-36]
	add	r3, r3, #2
	ldrb	r3, [r3]	@ zero_extendqisi2
	lsl	r3, r3, #8
	orr	r3, r2, r3
	ldr	r2, [fp, #-36]
	add	r2, r2, #3
	ldrb	r2, [r2]	@ zero_extendqisi2
	orr	r3, r3, r2
	str	r3, [fp, #-12]
	ldr	r3, [fp, #-36]
	add	r3, r3, #4
	ldrb	r3, [r3]	@ zero_extendqisi2
	lsl	r2, r3, #24
	ldr	r3, [fp, #-36]
	add	r3, r3, #5
	ldrb	r3, [r3]	@ zero_extendqisi2
	lsl	r3, r3, #16
	orr	r2, r2, r3
	ldr	r3, [fp, #-36]
	add	r3, r3, #6
	ldrb	r3, [r3]	@ zero_extendqisi2
	lsl	r3, r3, #8
	orr	r3, r2, r3
	ldr	r2, [fp, #-36]
	add	r2, r2, #7
	ldrb	r2, [r2]	@ zero_extendqisi2
	orr	r3, r3, r2
	str	r3, [fp, #-8]
	ldr	r3, [fp, #-24]
	ldr	r3, [r3]
	and	r3, r3, #16
	cmp	r3, #0
	beq	.L9
	ldr	r3, [fp, #-24]
	ldr	r3, [r3, #80]
	ldr	r2, [fp, #-8]
	add	r3, r2, r3
	str	r3, [fp, #-16]
	ldr	r3, [fp, #-24]
	ldrb	r3, [r3, #19]	@ zero_extendqisi2
	ldr	r2, [fp, #-16]
	rsb	r3, r3, #32
	ror	r3, r2, r3
	str	r3, [fp, #-16]
	ldr	r3, [fp, #-16]
	lsr	r3, r3, #24
	and	r3, r3, #255
	mov	r2, r3
	ldr	r3, .L11
	ldr	r2, [r3, r2, lsl #2]
	ldr	r3, [fp, #-16]
	lsr	r3, r3, #16
	and	r3, r3, #255
	mov	r1, r3
	ldr	r3, .L11+4
	ldr	r3, [r3, r1, lsl #2]
	eor	r2, r2, r3
	ldr	r3, [fp, #-16]
	lsr	r3, r3, #8
	and	r3, r3, #255
	mov	r1, r3
	ldr	r3, .L11+8
	ldr	r3, [r3, r1, lsl #2]
	sub	r2, r2, r3
	ldr	r3, [fp, #-16]
	and	r3, r3, #255
	mov	r1, r3
	ldr	r3, .L11+12
	ldr	r3, [r3, r1, lsl #2]
	add	r3, r2, r3
	ldr	r2, [fp, #-12]
	eor	r3, r3, r2
	str	r3, [fp, #-12]
	ldr	r3, [fp, #-24]
	ldr	r2, [r3, #76]
	ldr	r3, [fp, #-12]
	sub	r3, r2, r3
	str	r3, [fp, #-16]
	ldr	r3, [fp, #-24]
	ldrb	r3, [r3, #18]	@ zero_extendqisi2
	ldr	r2, [fp, #-16]
	rsb	r3, r3, #32
	ror	r3, r2, r3
	str	r3, [fp, #-16]
	ldr	r3, [fp, #-16]
	lsr	r3, r3, #24
	and	r3, r3, #255
	mov	r2, r3
	ldr	r3, .L11
	ldr	r2, [r3, r2, lsl #2]
	ldr	r3, [fp, #-16]
	lsr	r3, r3, #16
	and	r3, r3, #255
	mov	r1, r3
	ldr	r3, .L11+4
	ldr	r3, [r3, r1, lsl #2]
	add	r2, r2, r3
	ldr	r3, [fp, #-16]
	lsr	r3, r3, #8
	and	r3, r3, #255
	mov	r1, r3
	ldr	r3, .L11+8
	ldr	r3, [r3, r1, lsl #2]
	eor	r2, r2, r3
	ldr	r3, [fp, #-16]
	and	r3, r3, #255
	mov	r1, r3
	ldr	r3, .L11+12
	ldr	r3, [r3, r1, lsl #2]
	sub	r3, r2, r3
	ldr	r2, [fp, #-8]
	eor	r3, r3, r2
	str	r3, [fp, #-8]
	ldr	r3, [fp, #-24]
	ldr	r3, [r3, #72]
	ldr	r2, [fp, #-8]
	eor	r3, r3, r2
	str	r3, [fp, #-16]
	ldr	r3, [fp, #-24]
	ldrb	r3, [r3, #17]	@ zero_extendqisi2
	ldr	r2, [fp, #-16]
	rsb	r3, r3, #32
	ror	r3, r2, r3
	str	r3, [fp, #-16]
	ldr	r3, [fp, #-16]
	lsr	r3, r3, #24
	and	r3, r3, #255
	mov	r2, r3
	ldr	r3, .L11
	ldr	r2, [r3, r2, lsl #2]
	ldr	r3, [fp, #-16]
	lsr	r3, r3, #16
	and	r3, r3, #255
	mov	r1, r3
	ldr	r3, .L11+4
	ldr	r3, [r3, r1, lsl #2]
	sub	r2, r2, r3
	ldr	r3, [fp, #-16]
	lsr	r3, r3, #8
	and	r3, r3, #255
	mov	r1, r3
	ldr	r3, .L11+8
	ldr	r3, [r3, r1, lsl #2]
	add	r2, r2, r3
	ldr	r3, [fp, #-16]
	and	r3, r3, #255
	mov	r1, r3
	ldr	r3, .L11+12
	ldr	r3, [r3, r1, lsl #2]
	eor	r3, r3, r2
	ldr	r2, [fp, #-12]
	eor	r3, r3, r2
	str	r3, [fp, #-12]
	ldr	r3, [fp, #-24]
	ldr	r3, [r3, #68]
	ldr	r2, [fp, #-12]
	add	r3, r2, r3
	str	r3, [fp, #-16]
	ldr	r3, [fp, #-24]
	ldrb	r3, [r3, #16]	@ zero_extendqisi2
	ldr	r2, [fp, #-16]
	rsb	r3, r3, #32
	ror	r3, r2, r3
	str	r3, [fp, #-16]
	ldr	r3, [fp, #-16]
	lsr	r3, r3, #24
	and	r3, r3, #255
	mov	r2, r3
	ldr	r3, .L11
	ldr	r2, [r3, r2, lsl #2]
	ldr	r3, [fp, #-16]
	lsr	r3, r3, #16
	and	r3, r3, #255
	mov	r1, r3
	ldr	r3, .L11+4
	ldr	r3, [r3, r1, lsl #2]
	eor	r2, r2, r3
	ldr	r3, [fp, #-16]
	lsr	r3, r3, #8
	and	r3, r3, #255
	mov	r1, r3
	ldr	r3, .L11+8
	ldr	r3, [r3, r1, lsl #2]
	sub	r2, r2, r3
	ldr	r3, [fp, #-16]
	and	r3, r3, #255
	mov	r1, r3
	ldr	r3, .L11+12
	ldr	r3, [r3, r1, lsl #2]
	add	r3, r2, r3
	ldr	r2, [fp, #-8]
	eor	r3, r3, r2
	str	r3, [fp, #-8]
.L9:
	ldr	r3, [fp, #-24]
	ldr	r2, [r3, #64]
	ldr	r3, [fp, #-8]
	sub	r3, r2, r3
	str	r3, [fp, #-16]
	ldr	r3, [fp, #-24]
	ldrb	r3, [r3, #15]	@ zero_extendqisi2
	ldr	r2, [fp, #-16]
	rsb	r3, r3, #32
	ror	r3, r2, r3
	str	r3, [fp, #-16]
	ldr	r3, [fp, #-16]
	lsr	r3, r3, #24
	and	r3, r3, #255
	mov	r2, r3
	ldr	r3, .L11
	ldr	r2, [r3, r2, lsl #2]
	ldr	r3, [fp, #-16]
	lsr	r3, r3, #16
	and	r3, r3, #255
	mov	r1, r3
	ldr	r3, .L11+4
	ldr	r3, [r3, r1, lsl #2]
	add	r2, r2, r3
	ldr	r3, [fp, #-16]
	lsr	r3, r3, #8
	and	r3, r3, #255
	mov	r1, r3
	ldr	r3, .L11+8
	ldr	r3, [r3, r1, lsl #2]
	eor	r2, r2, r3
	ldr	r3, [fp, #-16]
	and	r3, r3, #255
	mov	r1, r3
	ldr	r3, .L11+12
	ldr	r3, [r3, r1, lsl #2]
	sub	r3, r2, r3
	ldr	r2, [fp, #-12]
	eor	r3, r3, r2
	str	r3, [fp, #-12]
	ldr	r3, [fp, #-24]
	ldr	r3, [r3, #60]
	ldr	r2, [fp, #-12]
	eor	r3, r3, r2
	str	r3, [fp, #-16]
	ldr	r3, [fp, #-24]
	ldrb	r3, [r3, #14]	@ zero_extendqisi2
	ldr	r2, [fp, #-16]
	rsb	r3, r3, #32
	ror	r3, r2, r3
	str	r3, [fp, #-16]
	ldr	r3, [fp, #-16]
	lsr	r3, r3, #24
	and	r3, r3, #255
	mov	r2, r3
	ldr	r3, .L11
	ldr	r2, [r3, r2, lsl #2]
	ldr	r3, [fp, #-16]
	lsr	r3, r3, #16
	and	r3, r3, #255
	mov	r1, r3
	ldr	r3, .L11+4
	ldr	r3, [r3, r1, lsl #2]
	sub	r2, r2, r3
	ldr	r3, [fp, #-16]
	lsr	r3, r3, #8
	and	r3, r3, #255
	mov	r1, r3
	ldr	r3, .L11+8
	ldr	r3, [r3, r1, lsl #2]
	add	r2, r2, r3
	ldr	r3, [fp, #-16]
	and	r3, r3, #255
	mov	r1, r3
	ldr	r3, .L11+12
	ldr	r3, [r3, r1, lsl #2]
	eor	r3, r3, r2
	ldr	r2, [fp, #-8]
	eor	r3, r3, r2
	str	r3, [fp, #-8]
	ldr	r3, [fp, #-24]
	ldr	r3, [r3, #56]
	ldr	r2, [fp, #-8]
	add	r3, r2, r3
	str	r3, [fp, #-16]
	ldr	r3, [fp, #-24]
	ldrb	r3, [r3, #13]	@ zero_extendqisi2
	ldr	r2, [fp, #-16]
	rsb	r3, r3, #32
	ror	r3, r2, r3
	str	r3, [fp, #-16]
	ldr	r3, [fp, #-16]
	lsr	r3, r3, #24
	and	r3, r3, #255
	mov	r2, r3
	ldr	r3, .L11
	ldr	r2, [r3, r2, lsl #2]
	ldr	r3, [fp, #-16]
	lsr	r3, r3, #16
	and	r3, r3, #255
	mov	r1, r3
	ldr	r3, .L11+4
	ldr	r3, [r3, r1, lsl #2]
	eor	r2, r2, r3
	ldr	r3, [fp, #-16]
	lsr	r3, r3, #8
	and	r3, r3, #255
	mov	r1, r3
	ldr	r3, .L11+8
	ldr	r3, [r3, r1, lsl #2]
	sub	r2, r2, r3
	ldr	r3, [fp, #-16]
	and	r3, r3, #255
	mov	r1, r3
	ldr	r3, .L11+12
	ldr	r3, [r3, r1, lsl #2]
	add	r3, r2, r3
	ldr	r2, [fp, #-12]
	eor	r3, r3, r2
	str	r3, [fp, #-12]
	ldr	r3, [fp, #-24]
	ldr	r2, [r3, #52]
	ldr	r3, [fp, #-12]
	sub	r3, r2, r3
	str	r3, [fp, #-16]
	ldr	r3, [fp, #-24]
	ldrb	r3, [r3, #12]	@ zero_extendqisi2
	ldr	r2, [fp, #-16]
	rsb	r3, r3, #32
	ror	r3, r2, r3
	str	r3, [fp, #-16]
	ldr	r3, [fp, #-16]
	lsr	r3, r3, #24
	and	r3, r3, #255
	mov	r2, r3
	ldr	r3, .L11
	ldr	r2, [r3, r2, lsl #2]
	ldr	r3, [fp, #-16]
	lsr	r3, r3, #16
	and	r3, r3, #255
	mov	r1, r3
	ldr	r3, .L11+4
	ldr	r3, [r3, r1, lsl #2]
	add	r2, r2, r3
	ldr	r3, [fp, #-16]
	lsr	r3, r3, #8
	and	r3, r3, #255
	mov	r1, r3
	ldr	r3, .L11+8
	ldr	r3, [r3, r1, lsl #2]
	eor	r2, r2, r3
	ldr	r3, [fp, #-16]
	and	r3, r3, #255
	mov	r1, r3
	ldr	r3, .L11+12
	ldr	r3, [r3, r1, lsl #2]
	sub	r3, r2, r3
	ldr	r2, [fp, #-8]
	eor	r3, r3, r2
	str	r3, [fp, #-8]
	ldr	r3, [fp, #-24]
	ldr	r3, [r3, #48]
	ldr	r2, [fp, #-8]
	eor	r3, r3, r2
	str	r3, [fp, #-16]
	ldr	r3, [fp, #-24]
	ldrb	r3, [r3, #11]	@ zero_extendqisi2
	ldr	r2, [fp, #-16]
	rsb	r3, r3, #32
	ror	r3, r2, r3
	str	r3, [fp, #-16]
	ldr	r3, [fp, #-16]
	lsr	r3, r3, #24
	and	r3, r3, #255
	mov	r2, r3
	ldr	r3, .L11
	ldr	r2, [r3, r2, lsl #2]
	ldr	r3, [fp, #-16]
	lsr	r3, r3, #16
	and	r3, r3, #255
	mov	r1, r3
	ldr	r3, .L11+4
	ldr	r3, [r3, r1, lsl #2]
	sub	r2, r2, r3
	ldr	r3, [fp, #-16]
	lsr	r3, r3, #8
	and	r3, r3, #255
	mov	r1, r3
	ldr	r3, .L11+8
	ldr	r3, [r3, r1, lsl #2]
	add	r2, r2, r3
	ldr	r3, [fp, #-16]
	and	r3, r3, #255
	mov	r1, r3
	ldr	r3, .L11+12
	ldr	r3, [r3, r1, lsl #2]
	eor	r3, r3, r2
	ldr	r2, [fp, #-12]
	eor	r3, r3, r2
	str	r3, [fp, #-12]
	ldr	r3, [fp, #-24]
	ldr	r3, [r3, #44]
	ldr	r2, [fp, #-12]
	add	r3, r2, r3
	str	r3, [fp, #-16]
	ldr	r3, [fp, #-24]
	ldrb	r3, [r3, #10]	@ zero_extendqisi2
	ldr	r2, [fp, #-16]
	rsb	r3, r3, #32
	ror	r3, r2, r3
	str	r3, [fp, #-16]
	ldr	r3, [fp, #-16]
	lsr	r3, r3, #24
	and	r3, r3, #255
	mov	r2, r3
	ldr	r3, .L11
	ldr	r2, [r3, r2, lsl #2]
	ldr	r3, [fp, #-16]
	lsr	r3, r3, #16
	and	r3, r3, #255
	mov	r1, r3
	ldr	r3, .L11+4
	ldr	r3, [r3, r1, lsl #2]
	eor	r2, r2, r3
	ldr	r3, [fp, #-16]
	lsr	r3, r3, #8
	and	r3, r3, #255
	mov	r1, r3
	ldr	r3, .L11+8
	ldr	r3, [r3, r1, lsl #2]
	sub	r2, r2, r3
	ldr	r3, [fp, #-16]
	and	r3, r3, #255
	mov	r1, r3
	ldr	r3, .L11+12
	ldr	r3, [r3, r1, lsl #2]
	add	r3, r2, r3
	ldr	r2, [fp, #-8]
	eor	r3, r3, r2
	str	r3, [fp, #-8]
	ldr	r3, [fp, #-24]
	ldr	r2, [r3, #40]
	ldr	r3, [fp, #-8]
	sub	r3, r2, r3
	str	r3, [fp, #-16]
	ldr	r3, [fp, #-24]
	ldrb	r3, [r3, #9]	@ zero_extendqisi2
	ldr	r2, [fp, #-16]
	rsb	r3, r3, #32
	ror	r3, r2, r3
	str	r3, [fp, #-16]
	ldr	r3, [fp, #-16]
	lsr	r3, r3, #24
	and	r3, r3, #255
	mov	r2, r3
	ldr	r3, .L11
	ldr	r2, [r3, r2, lsl #2]
	ldr	r3, [fp, #-16]
	lsr	r3, r3, #16
	and	r3, r3, #255
	mov	r1, r3
	ldr	r3, .L11+4
	ldr	r3, [r3, r1, lsl #2]
	add	r2, r2, r3
	ldr	r3, [fp, #-16]
	lsr	r3, r3, #8
	and	r3, r3, #255
	mov	r1, r3
	ldr	r3, .L11+8
	ldr	r3, [r3, r1, lsl #2]
	eor	r2, r2, r3
	ldr	r3, [fp, #-16]
	and	r3, r3, #255
	mov	r1, r3
	ldr	r3, .L11+12
	ldr	r3, [r3, r1, lsl #2]
	sub	r3, r2, r3
	ldr	r2, [fp, #-12]
	eor	r3, r3, r2
	str	r3, [fp, #-12]
	ldr	r3, [fp, #-24]
	ldr	r3, [r3, #36]
	ldr	r2, [fp, #-12]
	eor	r3, r3, r2
	str	r3, [fp, #-16]
	ldr	r3, [fp, #-24]
	ldrb	r3, [r3, #8]	@ zero_extendqisi2
	ldr	r2, [fp, #-16]
	rsb	r3, r3, #32
	ror	r3, r2, r3
	str	r3, [fp, #-16]
	ldr	r3, [fp, #-16]
	lsr	r3, r3, #24
	and	r3, r3, #255
	mov	r2, r3
	ldr	r3, .L11
	ldr	r2, [r3, r2, lsl #2]
	ldr	r3, [fp, #-16]
	lsr	r3, r3, #16
	and	r3, r3, #255
	mov	r1, r3
	ldr	r3, .L11+4
	ldr	r3, [r3, r1, lsl #2]
	sub	r2, r2, r3
	ldr	r3, [fp, #-16]
	lsr	r3, r3, #8
	and	r3, r3, #255
	mov	r1, r3
	ldr	r3, .L11+8
	ldr	r3, [r3, r1, lsl #2]
	add	r2, r2, r3
	ldr	r3, [fp, #-16]
	and	r3, r3, #255
	mov	r1, r3
	ldr	r3, .L11+12
	ldr	r3, [r3, r1, lsl #2]
	eor	r3, r3, r2
	ldr	r2, [fp, #-8]
	eor	r3, r3, r2
	str	r3, [fp, #-8]
	ldr	r3, [fp, #-24]
	ldr	r3, [r3, #32]
	ldr	r2, [fp, #-8]
	add	r3, r2, r3
	str	r3, [fp, #-16]
	ldr	r3, [fp, #-24]
	ldrb	r3, [r3, #7]	@ zero_extendqisi2
	ldr	r2, [fp, #-16]
	rsb	r3, r3, #32
	ror	r3, r2, r3
	str	r3, [fp, #-16]
	ldr	r3, [fp, #-16]
	lsr	r3, r3, #24
	and	r3, r3, #255
	mov	r2, r3
	ldr	r3, .L11
	ldr	r2, [r3, r2, lsl #2]
	ldr	r3, [fp, #-16]
	lsr	r3, r3, #16
	and	r3, r3, #255
	mov	r1, r3
	ldr	r3, .L11+4
	ldr	r3, [r3, r1, lsl #2]
	eor	r2, r2, r3
	ldr	r3, [fp, #-16]
	lsr	r3, r3, #8
	and	r3, r3, #255
	mov	r1, r3
	ldr	r3, .L11+8
	ldr	r3, [r3, r1, lsl #2]
	sub	r2, r2, r3
	ldr	r3, [fp, #-16]
	and	r3, r3, #255
	mov	r1, r3
	ldr	r3, .L11+12
	ldr	r3, [r3, r1, lsl #2]
	add	r3, r2, r3
	ldr	r2, [fp, #-12]
	eor	r3, r3, r2
	str	r3, [fp, #-12]
	ldr	r3, [fp, #-24]
	ldr	r2, [r3, #28]
	ldr	r3, [fp, #-12]
	sub	r3, r2, r3
	str	r3, [fp, #-16]
	ldr	r3, [fp, #-24]
	ldrb	r3, [r3, #6]	@ zero_extendqisi2
	ldr	r2, [fp, #-16]
	rsb	r3, r3, #32
	ror	r3, r2, r3
	str	r3, [fp, #-16]
	ldr	r3, [fp, #-16]
	lsr	r3, r3, #24
	and	r3, r3, #255
	mov	r2, r3
	ldr	r3, .L11
	ldr	r2, [r3, r2, lsl #2]
	ldr	r3, [fp, #-16]
	lsr	r3, r3, #16
	and	r3, r3, #255
	mov	r1, r3
	ldr	r3, .L11+4
	ldr	r3, [r3, r1, lsl #2]
	add	r2, r2, r3
	ldr	r3, [fp, #-16]
	lsr	r3, r3, #8
	and	r3, r3, #255
	mov	r1, r3
	ldr	r3, .L11+8
	ldr	r3, [r3, r1, lsl #2]
	eor	r2, r2, r3
	ldr	r3, [fp, #-16]
	and	r3, r3, #255
	mov	r1, r3
	ldr	r3, .L11+12
	ldr	r3, [r3, r1, lsl #2]
	sub	r3, r2, r3
	ldr	r2, [fp, #-8]
	eor	r3, r3, r2
	str	r3, [fp, #-8]
	ldr	r3, [fp, #-24]
	ldr	r3, [r3, #24]
	ldr	r2, [fp, #-8]
	eor	r3, r3, r2
	str	r3, [fp, #-16]
	ldr	r3, [fp, #-24]
	ldrb	r3, [r3, #5]	@ zero_extendqisi2
	ldr	r2, [fp, #-16]
	rsb	r3, r3, #32
	ror	r3, r2, r3
	str	r3, [fp, #-16]
	ldr	r3, [fp, #-16]
	lsr	r3, r3, #24
	and	r3, r3, #255
	mov	r2, r3
	ldr	r3, .L11
	ldr	r2, [r3, r2, lsl #2]
	ldr	r3, [fp, #-16]
	lsr	r3, r3, #16
	and	r3, r3, #255
	mov	r1, r3
	ldr	r3, .L11+4
	ldr	r3, [r3, r1, lsl #2]
	sub	r2, r2, r3
	ldr	r3, [fp, #-16]
	lsr	r3, r3, #8
	and	r3, r3, #255
	mov	r1, r3
	ldr	r3, .L11+8
	ldr	r3, [r3, r1, lsl #2]
	add	r2, r2, r3
	ldr	r3, [fp, #-16]
	and	r3, r3, #255
	mov	r1, r3
	ldr	r3, .L11+12
	ldr	r3, [r3, r1, lsl #2]
	eor	r3, r3, r2
	ldr	r2, [fp, #-12]
	eor	r3, r3, r2
	str	r3, [fp, #-12]
	ldr	r3, [fp, #-24]
	ldr	r3, [r3, #20]
	ldr	r2, [fp, #-12]
	add	r3, r2, r3
	str	r3, [fp, #-16]
	ldr	r3, [fp, #-24]
	ldrb	r3, [r3, #4]	@ zero_extendqisi2
	ldr	r2, [fp, #-16]
	rsb	r3, r3, #32
	ror	r3, r2, r3
	str	r3, [fp, #-16]
	ldr	r3, [fp, #-16]
	lsr	r3, r3, #24
	and	r3, r3, #255
	mov	r2, r3
	ldr	r3, .L11
	ldr	r2, [r3, r2, lsl #2]
	ldr	r3, [fp, #-16]
	lsr	r3, r3, #16
	and	r3, r3, #255
	mov	r1, r3
	ldr	r3, .L11+4
	ldr	r3, [r3, r1, lsl #2]
	eor	r2, r2, r3
	ldr	r3, [fp, #-16]
	lsr	r3, r3, #8
	and	r3, r3, #255
	mov	r1, r3
	ldr	r3, .L11+8
	ldr	r3, [r3, r1, lsl #2]
	sub	r2, r2, r3
	ldr	r3, [fp, #-16]
	and	r3, r3, #255
	mov	r1, r3
	ldr	r3, .L11+12
	ldr	r3, [r3, r1, lsl #2]
	add	r3, r2, r3
	ldr	r2, [fp, #-8]
	eor	r3, r3, r2
	str	r3, [fp, #-8]
	ldr	r3, [fp, #-8]
	lsr	r3, r3, #24
	and	r2, r3, #255
	ldr	r3, [fp, #-32]
	strb	r2, [r3]
	ldr	r3, [fp, #-8]
	lsr	r2, r3, #16
	ldr	r3, [fp, #-32]
	add	r3, r3, #1
	and	r2, r2, #255
	strb	r2, [r3]
	ldr	r3, [fp, #-8]
	lsr	r2, r3, #8
	ldr	r3, [fp, #-32]
	add	r3, r3, #2
	and	r2, r2, #255
	strb	r2, [r3]
	ldr	r3, [fp, #-32]
	add	r3, r3, #3
	ldr	r2, [fp, #-8]
	and	r2, r2, #255
	strb	r2, [r3]
	ldr	r3, [fp, #-12]
	lsr	r2, r3, #24
	ldr	r3, [fp, #-32]
	add	r3, r3, #4
	and	r2, r2, #255
	strb	r2, [r3]
	ldr	r3, [fp, #-12]
	lsr	r2, r3, #16
	ldr	r3, [fp, #-32]
	add	r3, r3, #5
	and	r2, r2, #255
	strb	r2, [r3]
	ldr	r3, [fp, #-12]
	lsr	r2, r3, #8
	ldr	r3, [fp, #-32]
	add	r3, r3, #6
	and	r2, r2, #255
	strb	r2, [r3]
	ldr	r3, [fp, #-32]
	add	r3, r3, #7
	ldr	r2, [fp, #-12]
	and	r2, r2, #255
	strb	r2, [r3]
	ldr	r3, [fp, #-28]
	sub	r3, r3, #8
	str	r3, [fp, #-28]
	ldr	r3, [fp, #-32]
	add	r3, r3, #8
	str	r3, [fp, #-32]
	ldr	r3, [fp, #-36]
	add	r3, r3, #8
	str	r3, [fp, #-36]
.L8:
	ldr	r3, [fp, #-28]
	cmp	r3, #0
	bne	.L10
	nop
	nop
	add	sp, fp, #0
	@ sp needed
	ldr	fp, [sp], #4
	bx	lr
.L12:
	.align	2
.L11:
	.word	cast_sbox1
	.word	cast_sbox2
	.word	cast_sbox3
	.word	cast_sbox4
	.size	cast128_decrypt, .-cast128_decrypt
	.align	2
	.global	cast128_set_key
	.syntax unified
	.arm
	.fpu softvfp
	.type	cast128_set_key, %function
cast128_set_key:
	@ Function supports interworking.
	@ args = 0, pretend = 0, frame = 56
	@ frame_needed = 1, uses_anonymous_args = 0
	@ link register save eliminated.
	str	fp, [sp, #-4]!
	add	fp, sp, #0
	sub	sp, sp, #60
	str	r0, [fp, #-48]
	str	r1, [fp, #-52]
	str	r2, [fp, #-56]
	ldr	r3, [fp, #-52]
	cmp	r3, #10
	movgt	r3, #1
	movle	r3, #0
	and	r3, r3, #255
	str	r3, [fp, #-24]
	ldr	r3, [fp, #-56]
	ldrb	r3, [r3]	@ zero_extendqisi2
	lsl	r2, r3, #24
	ldr	r3, [fp, #-56]
	add	r3, r3, #1
	ldrb	r3, [r3]	@ zero_extendqisi2
	lsl	r3, r3, #16
	orr	r2, r2, r3
	ldr	r3, [fp, #-56]
	add	r3, r3, #2
	ldrb	r3, [r3]	@ zero_extendqisi2
	lsl	r3, r3, #8
	orr	r3, r2, r3
	ldr	r2, [fp, #-56]
	add	r2, r2, #3
	ldrb	r2, [r2]	@ zero_extendqisi2
	orr	r3, r3, r2
	str	r3, [fp, #-28]
	ldr	r3, [fp, #-52]
	and	r3, r3, #3
	cmp	r3, #3
	ldrls	pc, [pc, r3, asl #2]
	b	.L14
.L16:
	.word	.L19
	.word	.L18
	.word	.L17
	.word	.L15
.L19:
	ldr	r3, [fp, #-52]
	sub	r3, r3, #4
	ldr	r2, [fp, #-56]
	add	r3, r2, r3
	ldrb	r3, [r3]	@ zero_extendqisi2
	lsl	r2, r3, #24
	ldr	r3, [fp, #-52]
	sub	r3, r3, #3
	ldr	r1, [fp, #-56]
	add	r3, r1, r3
	ldrb	r3, [r3]	@ zero_extendqisi2
	lsl	r3, r3, #16
	orr	r2, r2, r3
	ldr	r3, [fp, #-52]
	sub	r3, r3, #2
	ldr	r1, [fp, #-56]
	add	r3, r1, r3
	ldrb	r3, [r3]	@ zero_extendqisi2
	lsl	r3, r3, #8
	orr	r3, r2, r3
	ldr	r2, [fp, #-52]
	sub	r2, r2, #1
	ldr	r1, [fp, #-56]
	add	r2, r1, r2
	ldrb	r2, [r2]	@ zero_extendqisi2
	orr	r3, r3, r2
	str	r3, [fp, #-20]
	b	.L14
.L15:
	ldr	r3, [fp, #-52]
	sub	r3, r3, #3
	ldr	r2, [fp, #-56]
	add	r3, r2, r3
	ldrb	r3, [r3]	@ zero_extendqisi2
	lsl	r2, r3, #16
	ldr	r3, [fp, #-52]
	sub	r3, r3, #2
	ldr	r1, [fp, #-56]
	add	r3, r1, r3
	ldrb	r3, [r3]	@ zero_extendqisi2
	lsl	r3, r3, #8
	orr	r3, r2, r3
	ldr	r2, [fp, #-52]
	sub	r2, r2, #1
	ldr	r1, [fp, #-56]
	add	r2, r1, r2
	ldrb	r2, [r2]	@ zero_extendqisi2
	orr	r3, r3, r2
	lsl	r3, r3, #8
	str	r3, [fp, #-20]
	b	.L14
.L17:
	ldr	r3, [fp, #-52]
	sub	r3, r3, #2
	ldr	r2, [fp, #-56]
	add	r3, r2, r3
	ldrb	r3, [r3]	@ zero_extendqisi2
	lsl	r3, r3, #8
	ldr	r2, [fp, #-52]
	sub	r2, r2, #1
	ldr	r1, [fp, #-56]
	add	r2, r1, r2
	ldrb	r2, [r2]	@ zero_extendqisi2
	orr	r3, r3, r2
	lsl	r3, r3, #16
	str	r3, [fp, #-20]
	b	.L14
.L18:
	ldr	r3, [fp, #-52]
	sub	r3, r3, #1
	ldr	r2, [fp, #-56]
	add	r3, r2, r3
	ldrb	r3, [r3]	@ zero_extendqisi2
	lsl	r3, r3, #24
	str	r3, [fp, #-20]
	nop
.L14:
	ldr	r3, [fp, #-52]
	cmp	r3, #8
	bgt	.L20
	ldr	r3, [fp, #-20]
	str	r3, [fp, #-8]
	mov	r3, #0
	str	r3, [fp, #-16]
	ldr	r3, [fp, #-16]
	str	r3, [fp, #-12]
	b	.L21
.L20:
	ldr	r3, [fp, #-56]
	add	r3, r3, #4
	ldrb	r3, [r3]	@ zero_extendqisi2
	lsl	r2, r3, #24
	ldr	r3, [fp, #-56]
	add	r3, r3, #5
	ldrb	r3, [r3]	@ zero_extendqisi2
	lsl	r3, r3, #16
	orr	r2, r2, r3
	ldr	r3, [fp, #-56]
	add	r3, r3, #6
	ldrb	r3, [r3]	@ zero_extendqisi2
	lsl	r3, r3, #8
	orr	r3, r2, r3
	ldr	r2, [fp, #-56]
	add	r2, r2, #7
	ldrb	r2, [r2]	@ zero_extendqisi2
	orr	r3, r3, r2
	str	r3, [fp, #-8]
	ldr	r3, [fp, #-52]
	cmp	r3, #12
	bgt	.L22
	ldr	r3, [fp, #-20]
	str	r3, [fp, #-12]
	mov	r3, #0
	str	r3, [fp, #-16]
	b	.L21
.L22:
	ldr	r3, [fp, #-56]
	add	r3, r3, #8
	ldrb	r3, [r3]	@ zero_extendqisi2
	lsl	r2, r3, #24
	ldr	r3, [fp, #-56]
	add	r3, r3, #9
	ldrb	r3, [r3]	@ zero_extendqisi2
	lsl	r3, r3, #16
	orr	r2, r2, r3
	ldr	r3, [fp, #-56]
	add	r3, r3, #10
	ldrb	r3, [r3]	@ zero_extendqisi2
	lsl	r3, r3, #8
	orr	r3, r2, r3
	ldr	r2, [fp, #-56]
	add	r2, r2, #11
	ldrb	r2, [r2]	@ zero_extendqisi2
	orr	r3, r3, r2
	str	r3, [fp, #-12]
	ldr	r3, [fp, #-20]
	str	r3, [fp, #-16]
.L21:
	ldr	r3, [fp, #-16]
	lsr	r3, r3, #16
	and	r3, r3, #255
	mov	r2, r3
	ldr	r3, .L27
	ldr	r2, [r3, r2, lsl #2]
	ldr	r3, [fp, #-28]
	eor	r2, r2, r3
	ldr	r3, [fp, #-16]
	and	r3, r3, #255
	mov	r1, r3
	ldr	r3, .L27+8
	ldr	r3, [r3, r1, lsl #2]
	eor	r2, r2, r3
	ldr	r3, [fp, #-16]
	lsr	r3, r3, #24
	and	r3, r3, #255
	mov	r1, r3
	ldr	r3, .L27+12
	ldr	r3, [r3, r1, lsl #2]
	eor	r2, r2, r3
	ldr	r3, [fp, #-16]
	lsr	r3, r3, #8
	and	r3, r3, #255
	mov	r1, r3
	ldr	r3, .L27+16
	ldr	r3, [r3, r1, lsl #2]
	eor	r2, r2, r3
	ldr	r3, [fp, #-12]
	lsr	r3, r3, #24
	and	r3, r3, #255
	mov	r1, r3
	ldr	r3, .L27+12
	ldr	r3, [r3, r1, lsl #2]
	eor	r3, r3, r2
	str	r3, [fp, #-32]
	ldr	r3, [fp, #-32]
	lsr	r3, r3, #24
	and	r3, r3, #255
	mov	r2, r3
	ldr	r3, .L27
	ldr	r2, [r3, r2, lsl #2]
	ldr	r3, [fp, #-12]
	eor	r2, r2, r3
	ldr	r3, [fp, #-32]
	lsr	r3, r3, #8
	and	r3, r3, #255
	mov	r1, r3
	ldr	r3, .L27+8
	ldr	r3, [r3, r1, lsl #2]
	eor	r2, r2, r3
	ldr	r3, [fp, #-32]
	lsr	r3, r3, #16
	and	r3, r3, #255
	mov	r1, r3
	ldr	r3, .L27+12
	ldr	r3, [r3, r1, lsl #2]
	eor	r2, r2, r3
	ldr	r3, [fp, #-32]
	and	r3, r3, #255
	mov	r1, r3
	ldr	r3, .L27+16
	ldr	r3, [r3, r1, lsl #2]
	eor	r2, r2, r3
	ldr	r3, [fp, #-12]
	lsr	r3, r3, #8
	and	r3, r3, #255
	mov	r1, r3
	ldr	r3, .L27+16
	ldr	r3, [r3, r1, lsl #2]
	eor	r3, r3, r2
	str	r3, [fp, #-36]
	ldr	r3, [fp, #-36]
	and	r3, r3, #255
	mov	r2, r3
	ldr	r3, .L27
	ldr	r2, [r3, r2, lsl #2]
	ldr	r3, [fp, #-16]
	eor	r2, r2, r3
	ldr	r3, [fp, #-36]
	lsr	r3, r3, #8
	and	r3, r3, #255
	mov	r1, r3
	ldr	r3, .L27+8
	ldr	r3, [r3, r1, lsl #2]
	eor	r2, r2, r3
	ldr	r3, [fp, #-36]
	lsr	r3, r3, #16
	and	r3, r3, #255
	mov	r1, r3
	ldr	r3, .L27+12
	ldr	r3, [r3, r1, lsl #2]
	eor	r2, r2, r3
	ldr	r3, [fp, #-36]
	lsr	r3, r3, #24
	and	r3, r3, #255
	mov	r1, r3
	ldr	r3, .L27+16
	ldr	r3, [r3, r1, lsl #2]
	eor	r2, r2, r3
	ldr	r3, [fp, #-12]
	lsr	r3, r3, #16
	and	r3, r3, #255
	mov	r1, r3
	ldr	r3, .L27
	ldr	r3, [r3, r1, lsl #2]
	eor	r3, r3, r2
	str	r3, [fp, #-40]
	ldr	r3, [fp, #-40]
	lsr	r3, r3, #8
	and	r3, r3, #255
	mov	r2, r3
	ldr	r3, .L27
	ldr	r2, [r3, r2, lsl #2]
	ldr	r3, [fp, #-8]
	eor	r2, r2, r3
	ldr	r3, [fp, #-40]
	lsr	r3, r3, #16
	and	r3, r3, #255
	mov	r1, r3
	ldr	r3, .L27+8
	ldr	r3, [r3, r1, lsl #2]
	eor	r2, r2, r3
	ldr	r3, [fp, #-40]
	and	r3, r3, #255
	mov	r1, r3
	ldr	r3, .L27+12
	ldr	r3, [r3, r1, lsl #2]
	eor	r2, r2, r3
	ldr	r3, [fp, #-40]
	lsr	r3, r3, #24
	and	r3, r3, #255
	mov	r1, r3
	ldr	r3, .L27+16
	ldr	r3, [r3, r1, lsl #2]
	eor	r2, r2, r3
	ldr	r3, [fp, #-12]
	and	r3, r3, #255
	mov	r1, r3
	ldr	r3, .L27+8
	ldr	r3, [r3, r1, lsl #2]
	eor	r3, r3, r2
	str	r3, [fp, #-44]
	ldr	r3, [fp, #-40]
	lsr	r3, r3, #24
	and	r3, r3, #255
	mov	r2, r3
	ldr	r3, .L27
	ldr	r2, [r3, r2, lsl #2]
	ldr	r3, [fp, #-40]
	lsr	r3, r3, #16
	and	r3, r3, #255
	mov	r1, r3
	ldr	r3, .L27+8
	ldr	r3, [r3, r1, lsl #2]
	eor	r2, r2, r3
	ldr	r3, [fp, #-36]
	and	r3, r3, #255
	mov	r1, r3
	ldr	r3, .L27+12
	ldr	r3, [r3, r1, lsl #2]
	eor	r2, r2, r3
	ldr	r3, [fp, #-36]
	lsr	r3, r3, #8
	and	r3, r3, #255
	mov	r1, r3
	ldr	r3, .L27+16
	ldr	r3, [r3, r1, lsl #2]
	eor	r2, r2, r3
	ldr	r3, [fp, #-32]
	lsr	r3, r3, #8
	and	r3, r3, #255
	mov	r1, r3
	ldr	r3, .L27
	ldr	r3, [r3, r1, lsl #2]
	eor	r2, r2, r3
	ldr	r3, [fp, #-48]
	str	r2, [r3, #20]
	ldr	r3, [fp, #-40]
	lsr	r3, r3, #8
	and	r3, r3, #255
	mov	r2, r3
	ldr	r3, .L27
	ldr	r2, [r3, r2, lsl #2]
	ldr	r3, [fp, #-40]
	and	r3, r3, #255
	mov	r1, r3
	ldr	r3, .L27+8
	ldr	r3, [r3, r1, lsl #2]
	eor	r2, r2, r3
	ldr	r3, [fp, #-36]
	lsr	r3, r3, #16
	and	r3, r3, #255
	mov	r1, r3
	ldr	r3, .L27+12
	ldr	r3, [r3, r1, lsl #2]
	eor	r2, r2, r3
	ldr	r3, [fp, #-36]
	lsr	r3, r3, #24
	and	r3, r3, #255
	mov	r1, r3
	ldr	r3, .L27+16
	ldr	r3, [r3, r1, lsl #2]
	eor	r2, r2, r3
	ldr	r3, [fp, #-36]
	lsr	r3, r3, #8
	and	r3, r3, #255
	mov	r1, r3
	ldr	r3, .L27+8
	ldr	r3, [r3, r1, lsl #2]
	eor	r2, r2, r3
	ldr	r3, [fp, #-48]
	str	r2, [r3, #24]
	ldr	r3, [fp, #-44]
	lsr	r3, r3, #24
	and	r3, r3, #255
	mov	r2, r3
	ldr	r3, .L27
	ldr	r2, [r3, r2, lsl #2]
	ldr	r3, [fp, #-44]
	lsr	r3, r3, #16
	and	r3, r3, #255
	mov	r1, r3
	ldr	r3, .L27+8
	ldr	r3, [r3, r1, lsl #2]
	eor	r2, r2, r3
	ldr	r3, [fp, #-32]
	and	r3, r3, #255
	mov	r1, r3
	ldr	r3, .L27+12
	ldr	r3, [r3, r1, lsl #2]
	eor	r2, r2, r3
	ldr	r3, [fp, #-32]
	lsr	r3, r3, #8
	and	r3, r3, #255
	mov	r1, r3
	ldr	r3, .L27+16
	ldr	r3, [r3, r1, lsl #2]
	eor	r2, r2, r3
	ldr	r3, [fp, #-40]
	lsr	r3, r3, #16
	and	r3, r3, #255
	mov	r1, r3
	ldr	r3, .L27+12
	ldr	r3, [r3, r1, lsl #2]
	eor	r2, r2, r3
	ldr	r3, [fp, #-48]
	str	r2, [r3, #28]
	ldr	r3, [fp, #-44]
	lsr	r3, r3, #8
	and	r3, r3, #255
	mov	r2, r3
	ldr	r3, .L27
	ldr	r2, [r3, r2, lsl #2]
	ldr	r3, [fp, #-44]
	and	r3, r3, #255
	mov	r1, r3
	ldr	r3, .L27+8
	ldr	r3, [r3, r1, lsl #2]
	eor	r2, r2, r3
	ldr	r3, [fp, #-32]
	lsr	r3, r3, #16
	and	r3, r3, #255
	mov	r1, r3
	ldr	r3, .L27+12
	ldr	r3, [r3, r1, lsl #2]
	eor	r2, r2, r3
	ldr	r3, [fp, #-32]
	lsr	r3, r3, #24
	and	r3, r3, #255
	mov	r1, r3
	ldr	r3, .L27+16
	ldr	r3, [r3, r1, lsl #2]
	eor	r2, r2, r3
	ldr	r3, [fp, #-44]
	lsr	r3, r3, #24
	and	r3, r3, #255
	mov	r1, r3
	ldr	r3, .L27+16
	ldr	r3, [r3, r1, lsl #2]
	eor	r2, r2, r3
	ldr	r3, [fp, #-48]
	str	r2, [r3, #32]
	ldr	r3, [fp, #-36]
	lsr	r3, r3, #16
	and	r3, r3, #255
	mov	r2, r3
	ldr	r3, .L27
	ldr	r2, [r3, r2, lsl #2]
	ldr	r3, [fp, #-40]
	eor	r2, r2, r3
	ldr	r3, [fp, #-36]
	and	r3, r3, #255
	mov	r1, r3
	ldr	r3, .L27+8
	ldr	r3, [r3, r1, lsl #2]
	eor	r2, r2, r3
	ldr	r3, [fp, #-36]
	lsr	r3, r3, #24
	and	r3, r3, #255
	mov	r1, r3
	ldr	r3, .L27+12
	ldr	r3, [r3, r1, lsl #2]
	eor	r2, r2, r3
	ldr	r3, [fp, #-36]
	lsr	r3, r3, #8
	and	r3, r3, #255
	mov	r1, r3
	ldr	r3, .L27+16
	ldr	r3, [r3, r1, lsl #2]
	eor	r2, r2, r3
	ldr	r3, [fp, #-32]
	lsr	r3, r3, #24
	and	r3, r3, #255
	mov	r1, r3
	ldr	r3, .L27+12
	ldr	r3, [r3, r1, lsl #2]
	eor	r3, r3, r2
	str	r3, [fp, #-28]
	ldr	r3, [fp, #-28]
	lsr	r3, r3, #24
	and	r3, r3, #255
	mov	r2, r3
	ldr	r3, .L27
	ldr	r2, [r3, r2, lsl #2]
	ldr	r3, [fp, #-32]
	eor	r2, r2, r3
	ldr	r3, [fp, #-28]
	lsr	r3, r3, #8
	and	r3, r3, #255
	mov	r1, r3
	ldr	r3, .L27+8
	ldr	r3, [r3, r1, lsl #2]
	eor	r2, r2, r3
	ldr	r3, [fp, #-28]
	lsr	r3, r3, #16
	and	r3, r3, #255
	mov	r1, r3
	ldr	r3, .L27+12
	ldr	r3, [r3, r1, lsl #2]
	eor	r2, r2, r3
	ldr	r3, [fp, #-28]
	and	r3, r3, #255
	mov	r1, r3
	ldr	r3, .L27+16
	ldr	r3, [r3, r1, lsl #2]
	eor	r2, r2, r3
	ldr	r3, [fp, #-32]
	lsr	r3, r3, #8
	and	r3, r3, #255
	mov	r1, r3
	ldr	r3, .L27+16
	ldr	r3, [r3, r1, lsl #2]
	eor	r3, r3, r2
	str	r3, [fp, #-8]
	ldr	r3, [fp, #-8]
	and	r3, r3, #255
	mov	r2, r3
	ldr	r3, .L27
	ldr	r2, [r3, r2, lsl #2]
	ldr	r3, [fp, #-36]
	eor	r2, r2, r3
	ldr	r3, [fp, #-8]
	lsr	r3, r3, #8
	and	r3, r3, #255
	mov	r1, r3
	ldr	r3, .L27+8
	ldr	r3, [r3, r1, lsl #2]
	eor	r2, r2, r3
	ldr	r3, [fp, #-8]
	lsr	r3, r3, #16
	and	r3, r3, #255
	mov	r1, r3
	ldr	r3, .L27+12
	ldr	r3, [r3, r1, lsl #2]
	eor	r2, r2, r3
	ldr	r3, [fp, #-8]
	lsr	r3, r3, #24
	and	r3, r3, #255
	mov	r1, r3
	ldr	r3, .L27+16
	ldr	r3, [r3, r1, lsl #2]
	eor	r2, r2, r3
	ldr	r3, [fp, #-32]
	lsr	r3, r3, #16
	and	r3, r3, #255
	mov	r1, r3
	ldr	r3, .L27
	ldr	r3, [r3, r1, lsl #2]
	eor	r3, r3, r2
	str	r3, [fp, #-12]
	ldr	r3, [fp, #-12]
	lsr	r3, r3, #8
	and	r3, r3, #255
	mov	r2, r3
	ldr	r3, .L27
	ldr	r2, [r3, r2, lsl #2]
	ldr	r3, [fp, #-44]
	eor	r2, r2, r3
	ldr	r3, [fp, #-12]
	lsr	r3, r3, #16
	and	r3, r3, #255
	mov	r1, r3
	ldr	r3, .L27+8
	ldr	r3, [r3, r1, lsl #2]
	eor	r2, r2, r3
	ldr	r3, [fp, #-12]
	and	r3, r3, #255
	mov	r1, r3
	ldr	r3, .L27+12
	ldr	r3, [r3, r1, lsl #2]
	eor	r2, r2, r3
	ldr	r3, [fp, #-12]
	lsr	r3, r3, #24
	and	r3, r3, #255
	mov	r1, r3
	ldr	r3, .L27+16
	ldr	r3, [r3, r1, lsl #2]
	eor	r2, r2, r3
	ldr	r3, [fp, #-32]
	and	r3, r3, #255
	mov	r1, r3
	ldr	r3, .L27+8
	ldr	r3, [r3, r1, lsl #2]
	eor	r3, r3, r2
	str	r3, [fp, #-16]
	ldr	r3, [fp, #-28]
	and	r3, r3, #255
	mov	r2, r3
	ldr	r3, .L27
	ldr	r2, [r3, r2, lsl #2]
	ldr	r3, [fp, #-28]
	lsr	r3, r3, #8
	and	r3, r3, #255
	mov	r1, r3
	ldr	r3, .L27+8
	ldr	r3, [r3, r1, lsl #2]
	eor	r2, r2, r3
	ldr	r3, [fp, #-16]
	lsr	r3, r3, #24
	and	r3, r3, #255
	mov	r1, r3
	ldr	r3, .L27+12
	ldr	r3, [r3, r1, lsl #2]
	eor	r2, r2, r3
	ldr	r3, [fp, #-16]
	lsr	r3, r3, #16
	and	r3, r3, #255
	mov	r1, r3
	ldr	r3, .L27+16
	ldr	r3, [r3, r1, lsl #2]
	eor	r2, r2, r3
	ldr	r3, [fp, #-12]
	lsr	r3, r3, #24
	and	r3, r3, #255
	mov	r1, r3
	ldr	r3, .L27
	ldr	r3, [r3, r1, lsl #2]
	eor	r2, r2, r3
	ldr	r3, [fp, #-48]
	str	r2, [r3, #36]
	ldr	r3, [fp, #-28]
	lsr	r3, r3, #16
	and	r3, r3, #255
	mov	r2, r3
	ldr	r3, .L27
	ldr	r2, [r3, r2, lsl #2]
	ldr	r3, [fp, #-28]
	lsr	r3, r3, #24
	and	r3, r3, #255
	mov	r1, r3
	ldr	r3, .L27+8
	ldr	r3, [r3, r1, lsl #2]
	eor	r2, r2, r3
	ldr	r3, [fp, #-16]
	lsr	r3, r3, #8
	and	r3, r3, #255
	mov	r1, r3
	ldr	r3, .L27+12
	ldr	r3, [r3, r1, lsl #2]
	eor	r2, r2, r3
	ldr	r3, [fp, #-16]
	and	r3, r3, #255
	mov	r1, r3
	ldr	r3, .L27+16
	ldr	r3, [r3, r1, lsl #2]
	eor	r2, r2, r3
	ldr	r3, [fp, #-16]
	lsr	r3, r3, #16
	and	r3, r3, #255
	mov	r1, r3
	ldr	r3, .L27+8
	ldr	r3, [r3, r1, lsl #2]
	eor	r2, r2, r3
	ldr	r3, [fp, #-48]
	str	r2, [r3, #40]
	ldr	r3, [fp, #-8]
	and	r3, r3, #255
	mov	r2, r3
	ldr	r3, .L27
	ldr	r2, [r3, r2, lsl #2]
	ldr	r3, [fp, #-8]
	lsr	r3, r3, #8
	and	r3, r3, #255
	mov	r1, r3
	ldr	r3, .L27+8
	ldr	r3, [r3, r1, lsl #2]
	eor	r2, r2, r3
	ldr	r3, [fp, #-12]
	lsr	r3, r3, #24
	and	r3, r3, #255
	mov	r1, r3
	ldr	r3, .L27+12
	ldr	r3, [r3, r1, lsl #2]
	eor	r2, r2, r3
	ldr	r3, [fp, #-12]
	lsr	r3, r3, #16
	and	r3, r3, #255
	mov	r1, r3
	ldr	r3, .L27+16
	ldr	r3, [r3, r1, lsl #2]
	eor	r2, r2, r3
	ldr	r3, [fp, #-28]
	and	r3, r3, #255
	mov	r1, r3
	ldr	r3, .L27+12
	ldr	r3, [r3, r1, lsl #2]
	eor	r2, r2, r3
	ldr	r3, [fp, #-48]
	str	r2, [r3, #44]
	ldr	r3, [fp, #-8]
	lsr	r3, r3, #16
	and	r3, r3, #255
	mov	r2, r3
	ldr	r3, .L27
	ldr	r2, [r3, r2, lsl #2]
	ldr	r3, [fp, #-8]
	lsr	r3, r3, #24
	and	r3, r3, #255
	mov	r1, r3
	ldr	r3, .L27+8
	ldr	r3, [r3, r1, lsl #2]
	eor	r2, r2, r3
	ldr	r3, [fp, #-12]
	lsr	r3, r3, #8
	and	r3, r3, #255
	mov	r1, r3
	ldr	r3, .L27+12
	ldr	r3, [r3, r1, lsl #2]
	eor	r2, r2, r3
	ldr	r3, [fp, #-12]
	and	r3, r3, #255
	mov	r1, r3
	ldr	r3, .L27+16
	ldr	r3, [r3, r1, lsl #2]
	eor	r2, r2, r3
	ldr	r3, [fp, #-8]
	and	r3, r3, #255
	mov	r1, r3
	ldr	r3, .L27+16
	ldr	r3, [r3, r1, lsl #2]
	eor	r2, r2, r3
	ldr	r3, [fp, #-48]
	str	r2, [r3, #48]
	ldr	r3, [fp, #-16]
	lsr	r3, r3, #16
	and	r3, r3, #255
	mov	r2, r3
	ldr	r3, .L27
	ldr	r2, [r3, r2, lsl #2]
	ldr	r3, [fp, #-28]
	eor	r2, r2, r3
	ldr	r3, [fp, #-16]
	and	r3, r3, #255
	mov	r1, r3
	ldr	r3, .L27+8
	ldr	r3, [r3, r1, lsl #2]
	eor	r2, r2, r3
	ldr	r3, [fp, #-16]
	lsr	r3, r3, #24
	and	r3, r3, #255
	mov	r1, r3
	ldr	r3, .L27+12
	ldr	r3, [r3, r1, lsl #2]
	eor	r2, r2, r3
	ldr	r3, [fp, #-16]
	lsr	r3, r3, #8
	and	r3, r3, #255
	mov	r1, r3
	ldr	r3, .L27+16
	ldr	r3, [r3, r1, lsl #2]
	eor	r2, r2, r3
	ldr	r3, [fp, #-12]
	lsr	r3, r3, #24
	and	r3, r3, #255
	mov	r1, r3
	ldr	r3, .L27+12
	ldr	r3, [r3, r1, lsl #2]
	eor	r3, r3, r2
	str	r3, [fp, #-32]
	ldr	r3, [fp, #-32]
	lsr	r3, r3, #24
	and	r3, r3, #255
	mov	r2, r3
	ldr	r3, .L27
	ldr	r2, [r3, r2, lsl #2]
	ldr	r3, [fp, #-12]
	eor	r2, r2, r3
	ldr	r3, [fp, #-32]
	lsr	r3, r3, #8
	and	r3, r3, #255
	mov	r1, r3
	ldr	r3, .L27+8
	ldr	r3, [r3, r1, lsl #2]
	eor	r2, r2, r3
	ldr	r3, [fp, #-32]
	lsr	r3, r3, #16
	and	r3, r3, #255
	mov	r1, r3
	ldr	r3, .L27+12
	ldr	r3, [r3, r1, lsl #2]
	eor	r2, r2, r3
	ldr	r3, [fp, #-32]
	and	r3, r3, #255
	mov	r1, r3
	ldr	r3, .L27+16
	ldr	r3, [r3, r1, lsl #2]
	eor	r2, r2, r3
	ldr	r3, [fp, #-12]
	lsr	r3, r3, #8
	and	r3, r3, #255
	mov	r1, r3
	ldr	r3, .L27+16
	ldr	r3, [r3, r1, lsl #2]
	eor	r3, r3, r2
	str	r3, [fp, #-36]
	ldr	r3, [fp, #-36]
	and	r3, r3, #255
	mov	r2, r3
	ldr	r3, .L27
	ldr	r2, [r3, r2, lsl #2]
	ldr	r3, [fp, #-16]
	eor	r2, r2, r3
	ldr	r3, [fp, #-36]
	lsr	r3, r3, #8
	and	r3, r3, #255
	mov	r1, r3
	ldr	r3, .L27+8
	ldr	r3, [r3, r1, lsl #2]
	eor	r2, r2, r3
	ldr	r3, [fp, #-36]
	lsr	r3, r3, #16
	and	r3, r3, #255
	mov	r1, r3
	ldr	r3, .L27+12
	ldr	r3, [r3, r1, lsl #2]
	eor	r2, r2, r3
	ldr	r3, [fp, #-36]
	lsr	r3, r3, #24
	and	r3, r3, #255
	mov	r1, r3
	ldr	r3, .L27+16
	ldr	r3, [r3, r1, lsl #2]
	eor	r2, r2, r3
	ldr	r3, [fp, #-12]
	lsr	r3, r3, #16
	and	r3, r3, #255
	mov	r1, r3
	ldr	r3, .L27
	ldr	r3, [r3, r1, lsl #2]
	eor	r3, r3, r2
	str	r3, [fp, #-40]
	ldr	r3, [fp, #-40]
	lsr	r3, r3, #8
	and	r3, r3, #255
	mov	r2, r3
	ldr	r3, .L27
	ldr	r2, [r3, r2, lsl #2]
	ldr	r3, [fp, #-8]
	eor	r2, r2, r3
	ldr	r3, [fp, #-40]
	lsr	r3, r3, #16
	and	r3, r3, #255
	mov	r1, r3
	ldr	r3, .L27+8
	ldr	r3, [r3, r1, lsl #2]
	eor	r2, r2, r3
	ldr	r3, [fp, #-40]
	and	r3, r3, #255
	mov	r1, r3
	ldr	r3, .L27+12
	ldr	r3, [r3, r1, lsl #2]
	eor	r2, r2, r3
	ldr	r3, [fp, #-40]
	lsr	r3, r3, #24
	and	r3, r3, #255
	mov	r1, r3
	ldr	r3, .L27+16
	ldr	r3, [r3, r1, lsl #2]
	eor	r2, r2, r3
	ldr	r3, [fp, #-12]
	and	r3, r3, #255
	mov	r1, r3
	ldr	r3, .L27+8
	ldr	r3, [r3, r1, lsl #2]
	eor	r3, r3, r2
	str	r3, [fp, #-44]
	ldr	r3, [fp, #-32]
	and	r3, r3, #255
	mov	r2, r3
	ldr	r3, .L27
	ldr	r2, [r3, r2, lsl #2]
	ldr	r3, [fp, #-32]
	lsr	r3, r3, #8
	and	r3, r3, #255
	mov	r1, r3
	ldr	r3, .L27+8
	ldr	r3, [r3, r1, lsl #2]
	eor	r2, r2, r3
	ldr	r3, [fp, #-44]
	lsr	r3, r3, #24
	and	r3, r3, #255
	mov	r1, r3
	ldr	r3, .L27+12
	ldr	r3, [r3, r1, lsl #2]
	eor	r2, r2, r3
	ldr	r3, [fp, #-44]
	lsr	r3, r3, #16
	and	r3, r3, #255
	mov	r1, r3
	ldr	r3, .L27+16
	ldr	r3, [r3, r1, lsl #2]
	eor	r2, r2, r3
	ldr	r3, [fp, #-40]
	lsr	r3, r3, #16
	and	r3, r3, #255
	mov	r1, r3
	ldr	r3, .L27
	ldr	r3, [r3, r1, lsl #2]
	eor	r2, r2, r3
	ldr	r3, [fp, #-48]
	str	r2, [r3, #52]
	ldr	r3, [fp, #-32]
	lsr	r3, r3, #16
	and	r3, r3, #255
	mov	r2, r3
	ldr	r3, .L27
	ldr	r2, [r3, r2, lsl #2]
	ldr	r3, [fp, #-32]
	lsr	r3, r3, #24
	and	r3, r3, #255
	mov	r1, r3
	ldr	r3, .L27+8
	ldr	r3, [r3, r1, lsl #2]
	eor	r2, r2, r3
	ldr	r3, [fp, #-44]
	lsr	r3, r3, #8
	and	r3, r3, #255
	mov	r1, r3
	ldr	r3, .L27+12
	ldr	r3, [r3, r1, lsl #2]
	eor	r2, r2, r3
	ldr	r3, [fp, #-44]
	and	r3, r3, #255
	mov	r1, r3
	ldr	r3, .L27+16
	ldr	r3, [r3, r1, lsl #2]
	eor	r2, r2, r3
	ldr	r3, [fp, #-44]
	lsr	r3, r3, #24
	and	r3, r3, #255
	mov	r1, r3
	ldr	r3, .L27+8
	ldr	r3, [r3, r1, lsl #2]
	eor	r2, r2, r3
	ldr	r3, [fp, #-48]
	str	r2, [r3, #56]
	ldr	r3, [fp, #-36]
	and	r3, r3, #255
	mov	r2, r3
	ldr	r3, .L27
	ldr	r2, [r3, r2, lsl #2]
	ldr	r3, [fp, #-36]
	lsr	r3, r3, #8
	and	r3, r3, #255
	mov	r1, r3
	ldr	r3, .L27+8
	ldr	r3, [r3, r1, lsl #2]
	eor	r2, r2, r3
	ldr	r3, [fp, #-40]
	lsr	r3, r3, #24
	and	r3, r3, #255
	mov	r1, r3
	ldr	r3, .L27+12
	ldr	r3, [r3, r1, lsl #2]
	eor	r2, r2, r3
	ldr	r3, [fp, #-40]
	lsr	r3, r3, #16
	and	r3, r3, #255
	mov	r1, r3
	ldr	r3, .L27+16
	ldr	r3, [r3, r1, lsl #2]
	eor	r2, r2, r3
	ldr	r3, [fp, #-32]
	lsr	r3, r3, #8
	and	r3, r3, #255
	mov	r1, r3
	ldr	r3, .L27+12
	ldr	r3, [r3, r1, lsl #2]
	eor	r2, r2, r3
	ldr	r3, [fp, #-48]
	str	r2, [r3, #60]
	ldr	r3, [fp, #-36]
	lsr	r3, r3, #16
	and	r3, r3, #255
	mov	r2, r3
	ldr	r3, .L27
	ldr	r2, [r3, r2, lsl #2]
	ldr	r3, [fp, #-36]
	lsr	r3, r3, #24
	and	r3, r3, #255
	mov	r1, r3
	ldr	r3, .L27+8
	ldr	r3, [r3, r1, lsl #2]
	eor	r2, r2, r3
	ldr	r3, [fp, #-40]
	lsr	r3, r3, #8
	and	r3, r3, #255
	mov	r1, r3
	ldr	r3, .L27+12
	ldr	r3, [r3, r1, lsl #2]
	eor	r2, r2, r3
	ldr	r3, [fp, #-40]
	and	r3, r3, #255
	mov	r1, r3
	ldr	r3, .L27+16
	ldr	r3, [r3, r1, lsl #2]
	eor	r2, r2, r3
	ldr	r3, [fp, #-36]
	lsr	r3, r3, #8
	and	r3, r3, #255
	mov	r1, r3
	ldr	r3, .L27+16
	ldr	r3, [r3, r1, lsl #2]
	eor	r2, r2, r3
	ldr	r3, [fp, #-48]
	str	r2, [r3, #64]
	ldr	r3, [fp, #-36]
	lsr	r3, r3, #16
	and	r3, r3, #255
	mov	r2, r3
	ldr	r3, .L27
	ldr	r2, [r3, r2, lsl #2]
	ldr	r3, [fp, #-40]
	eor	r2, r2, r3
	ldr	r3, [fp, #-36]
	and	r3, r3, #255
	mov	r1, r3
	ldr	r3, .L27+8
	ldr	r3, [r3, r1, lsl #2]
	eor	r2, r2, r3
	ldr	r3, [fp, #-36]
	lsr	r3, r3, #24
	and	r3, r3, #255
	mov	r1, r3
	ldr	r3, .L27+12
	ldr	r3, [r3, r1, lsl #2]
	eor	r2, r2, r3
	ldr	r3, [fp, #-36]
	lsr	r3, r3, #8
	and	r3, r3, #255
	mov	r1, r3
	ldr	r3, .L27+16
	ldr	r3, [r3, r1, lsl #2]
	eor	r2, r2, r3
	ldr	r3, [fp, #-32]
	lsr	r3, r3, #24
	and	r3, r3, #255
	mov	r1, r3
	ldr	r3, .L27+12
	ldr	r3, [r3, r1, lsl #2]
	eor	r3, r3, r2
	str	r3, [fp, #-28]
	ldr	r3, [fp, #-28]
	lsr	r3, r3, #24
	and	r3, r3, #255
	mov	r2, r3
	ldr	r3, .L27
	ldr	r2, [r3, r2, lsl #2]
	ldr	r3, [fp, #-32]
	eor	r2, r2, r3
	ldr	r3, [fp, #-28]
	lsr	r3, r3, #8
	and	r3, r3, #255
	mov	r1, r3
	ldr	r3, .L27+8
	ldr	r3, [r3, r1, lsl #2]
	eor	r2, r2, r3
	ldr	r3, [fp, #-28]
	lsr	r3, r3, #16
	and	r3, r3, #255
	mov	r1, r3
	ldr	r3, .L27+12
	ldr	r3, [r3, r1, lsl #2]
	eor	r2, r2, r3
	ldr	r3, [fp, #-28]
	and	r3, r3, #255
	mov	r1, r3
	ldr	r3, .L27+16
	ldr	r3, [r3, r1, lsl #2]
	eor	r2, r2, r3
	ldr	r3, [fp, #-32]
	lsr	r3, r3, #8
	and	r3, r3, #255
	mov	r1, r3
	ldr	r3, .L27+16
	ldr	r3, [r3, r1, lsl #2]
	eor	r3, r3, r2
	str	r3, [fp, #-8]
	ldr	r3, [fp, #-8]
	and	r3, r3, #255
	mov	r2, r3
	ldr	r3, .L27
	ldr	r2, [r3, r2, lsl #2]
	ldr	r3, [fp, #-36]
	eor	r2, r2, r3
	ldr	r3, [fp, #-8]
	lsr	r3, r3, #8
	and	r3, r3, #255
	mov	r1, r3
	ldr	r3, .L27+8
	ldr	r3, [r3, r1, lsl #2]
	eor	r2, r2, r3
	ldr	r3, [fp, #-8]
	lsr	r3, r3, #16
	and	r3, r3, #255
	mov	r1, r3
	ldr	r3, .L27+12
	ldr	r3, [r3, r1, lsl #2]
	eor	r2, r2, r3
	ldr	r3, [fp, #-8]
	lsr	r3, r3, #24
	and	r3, r3, #255
	mov	r1, r3
	ldr	r3, .L27+16
	ldr	r3, [r3, r1, lsl #2]
	eor	r2, r2, r3
	ldr	r3, [fp, #-32]
	lsr	r3, r3, #16
	and	r3, r3, #255
	mov	r1, r3
	ldr	r3, .L27
	ldr	r3, [r3, r1, lsl #2]
	eor	r3, r3, r2
	str	r3, [fp, #-12]
	ldr	r3, [fp, #-12]
	lsr	r3, r3, #8
	and	r3, r3, #255
	mov	r2, r3
	ldr	r3, .L27
	ldr	r2, [r3, r2, lsl #2]
	ldr	r3, [fp, #-44]
	eor	r2, r2, r3
	ldr	r3, [fp, #-12]
	lsr	r3, r3, #16
	and	r3, r3, #255
	mov	r1, r3
	ldr	r3, .L27+8
	ldr	r3, [r3, r1, lsl #2]
	eor	r2, r2, r3
	ldr	r3, [fp, #-12]
	and	r3, r3, #255
	mov	r1, r3
	ldr	r3, .L27+12
	ldr	r3, [r3, r1, lsl #2]
	eor	r2, r2, r3
	ldr	r3, [fp, #-12]
	lsr	r3, r3, #24
	and	r3, r3, #255
	mov	r1, r3
	ldr	r3, .L27+16
	ldr	r3, [r3, r1, lsl #2]
	eor	r2, r2, r3
	ldr	r3, [fp, #-32]
	and	r3, r3, #255
	mov	r1, r3
	ldr	r3, .L27+8
	ldr	r3, [r3, r1, lsl #2]
	eor	r3, r3, r2
	str	r3, [fp, #-16]
	ldr	r3, [fp, #-24]
	cmp	r3, #0
	beq	.L23
	ldr	r3, [fp, #-12]
	lsr	r3, r3, #24
	and	r3, r3, #255
	mov	r2, r3
	ldr	r3, .L27
	ldr	r2, [r3, r2, lsl #2]
	ldr	r3, [fp, #-12]
	lsr	r3, r3, #16
	and	r3, r3, #255
	mov	r1, r3
	ldr	r3, .L27+8
	ldr	r3, [r3, r1, lsl #2]
	eor	r2, r2, r3
	ldr	r3, [fp, #-8]
	and	r3, r3, #255
	mov	r1, r3
	ldr	r3, .L27+12
	ldr	r3, [r3, r1, lsl #2]
	eor	r2, r2, r3
	ldr	r3, [fp, #-8]
	lsr	r3, r3, #8
	and	r3, r3, #255
	mov	r1, r3
	ldr	r3, .L27+16
	ldr	r3, [r3, r1, lsl #2]
	eor	r2, r2, r3
	ldr	r3, [fp, #-28]
	and	r3, r3, #255
	mov	r1, r3
	ldr	r3, .L27
	ldr	r3, [r3, r1, lsl #2]
	eor	r2, r2, r3
	ldr	r3, [fp, #-48]
	str	r2, [r3, #68]
	b	.L28
.L29:
	.align	2
.L27:
	.word	cast_sbox5
	.word	cast_sbox5
	.word	cast_sbox6
	.word	cast_sbox7
	.word	cast_sbox8
.L28:
	ldr	r3, [fp, #-12]
	lsr	r3, r3, #8
	and	r3, r3, #255
	mov	r2, r3
	ldr	r3, .L27+4
	ldr	r2, [r3, r2, lsl #2]
	ldr	r3, [fp, #-12]
	and	r3, r3, #255
	mov	r1, r3
	ldr	r3, .L27+8
	ldr	r3, [r3, r1, lsl #2]
	eor	r2, r2, r3
	ldr	r3, [fp, #-8]
	lsr	r3, r3, #16
	and	r3, r3, #255
	mov	r1, r3
	ldr	r3, .L27+12
	ldr	r3, [r3, r1, lsl #2]
	eor	r2, r2, r3
	ldr	r3, [fp, #-8]
	lsr	r3, r3, #24
	and	r3, r3, #255
	mov	r1, r3
	ldr	r3, .L27+16
	ldr	r3, [r3, r1, lsl #2]
	eor	r2, r2, r3
	ldr	r3, [fp, #-8]
	and	r3, r3, #255
	mov	r1, r3
	ldr	r3, .L27+8
	ldr	r3, [r3, r1, lsl #2]
	eor	r2, r2, r3
	ldr	r3, [fp, #-48]
	str	r2, [r3, #72]
	ldr	r3, [fp, #-16]
	lsr	r3, r3, #24
	and	r3, r3, #255
	mov	r2, r3
	ldr	r3, .L27+4
	ldr	r2, [r3, r2, lsl #2]
	ldr	r3, [fp, #-16]
	lsr	r3, r3, #16
	and	r3, r3, #255
	mov	r1, r3
	ldr	r3, .L27+8
	ldr	r3, [r3, r1, lsl #2]
	eor	r2, r2, r3
	ldr	r3, [fp, #-28]
	and	r3, r3, #255
	mov	r1, r3
	ldr	r3, .L27+12
	ldr	r3, [r3, r1, lsl #2]
	eor	r2, r2, r3
	ldr	r3, [fp, #-28]
	lsr	r3, r3, #8
	and	r3, r3, #255
	mov	r1, r3
	ldr	r3, .L27+16
	ldr	r3, [r3, r1, lsl #2]
	eor	r2, r2, r3
	ldr	r3, [fp, #-12]
	lsr	r3, r3, #24
	and	r3, r3, #255
	mov	r1, r3
	ldr	r3, .L27+12
	ldr	r3, [r3, r1, lsl #2]
	eor	r2, r2, r3
	ldr	r3, [fp, #-48]
	str	r2, [r3, #76]
	ldr	r3, [fp, #-16]
	lsr	r3, r3, #8
	and	r3, r3, #255
	mov	r2, r3
	ldr	r3, .L27+4
	ldr	r2, [r3, r2, lsl #2]
	ldr	r3, [fp, #-16]
	and	r3, r3, #255
	mov	r1, r3
	ldr	r3, .L27+8
	ldr	r3, [r3, r1, lsl #2]
	eor	r2, r2, r3
	ldr	r3, [fp, #-28]
	lsr	r3, r3, #16
	and	r3, r3, #255
	mov	r1, r3
	ldr	r3, .L27+12
	ldr	r3, [r3, r1, lsl #2]
	eor	r2, r2, r3
	ldr	r3, [fp, #-28]
	lsr	r3, r3, #24
	and	r3, r3, #255
	mov	r1, r3
	ldr	r3, .L27+16
	ldr	r3, [r3, r1, lsl #2]
	eor	r2, r2, r3
	ldr	r3, [fp, #-16]
	lsr	r3, r3, #16
	and	r3, r3, #255
	mov	r1, r3
	ldr	r3, .L27+16
	ldr	r3, [r3, r1, lsl #2]
	eor	r2, r2, r3
	ldr	r3, [fp, #-48]
	str	r2, [r3, #80]
.L23:
	ldr	r3, [fp, #-16]
	lsr	r3, r3, #16
	and	r3, r3, #255
	mov	r2, r3
	ldr	r3, .L27+4
	ldr	r2, [r3, r2, lsl #2]
	ldr	r3, [fp, #-28]
	eor	r2, r2, r3
	ldr	r3, [fp, #-16]
	and	r3, r3, #255
	mov	r1, r3
	ldr	r3, .L27+8
	ldr	r3, [r3, r1, lsl #2]
	eor	r2, r2, r3
	ldr	r3, [fp, #-16]
	lsr	r3, r3, #24
	and	r3, r3, #255
	mov	r1, r3
	ldr	r3, .L27+12
	ldr	r3, [r3, r1, lsl #2]
	eor	r2, r2, r3
	ldr	r3, [fp, #-16]
	lsr	r3, r3, #8
	and	r3, r3, #255
	mov	r1, r3
	ldr	r3, .L27+16
	ldr	r3, [r3, r1, lsl #2]
	eor	r2, r2, r3
	ldr	r3, [fp, #-12]
	lsr	r3, r3, #24
	and	r3, r3, #255
	mov	r1, r3
	ldr	r3, .L27+12
	ldr	r3, [r3, r1, lsl #2]
	eor	r3, r3, r2
	str	r3, [fp, #-32]
	ldr	r3, [fp, #-32]
	lsr	r3, r3, #24
	and	r3, r3, #255
	mov	r2, r3
	ldr	r3, .L27+4
	ldr	r2, [r3, r2, lsl #2]
	ldr	r3, [fp, #-12]
	eor	r2, r2, r3
	ldr	r3, [fp, #-32]
	lsr	r3, r3, #8
	and	r3, r3, #255
	mov	r1, r3
	ldr	r3, .L27+8
	ldr	r3, [r3, r1, lsl #2]
	eor	r2, r2, r3
	ldr	r3, [fp, #-32]
	lsr	r3, r3, #16
	and	r3, r3, #255
	mov	r1, r3
	ldr	r3, .L27+12
	ldr	r3, [r3, r1, lsl #2]
	eor	r2, r2, r3
	ldr	r3, [fp, #-32]
	and	r3, r3, #255
	mov	r1, r3
	ldr	r3, .L27+16
	ldr	r3, [r3, r1, lsl #2]
	eor	r2, r2, r3
	ldr	r3, [fp, #-12]
	lsr	r3, r3, #8
	and	r3, r3, #255
	mov	r1, r3
	ldr	r3, .L27+16
	ldr	r3, [r3, r1, lsl #2]
	eor	r3, r3, r2
	str	r3, [fp, #-36]
	ldr	r3, [fp, #-36]
	and	r3, r3, #255
	mov	r2, r3
	ldr	r3, .L27+4
	ldr	r2, [r3, r2, lsl #2]
	ldr	r3, [fp, #-16]
	eor	r2, r2, r3
	ldr	r3, [fp, #-36]
	lsr	r3, r3, #8
	and	r3, r3, #255
	mov	r1, r3
	ldr	r3, .L27+8
	ldr	r3, [r3, r1, lsl #2]
	eor	r2, r2, r3
	ldr	r3, [fp, #-36]
	lsr	r3, r3, #16
	and	r3, r3, #255
	mov	r1, r3
	ldr	r3, .L27+12
	ldr	r3, [r3, r1, lsl #2]
	eor	r2, r2, r3
	ldr	r3, [fp, #-36]
	lsr	r3, r3, #24
	and	r3, r3, #255
	mov	r1, r3
	ldr	r3, .L27+16
	ldr	r3, [r3, r1, lsl #2]
	eor	r2, r2, r3
	ldr	r3, [fp, #-12]
	lsr	r3, r3, #16
	and	r3, r3, #255
	mov	r1, r3
	ldr	r3, .L27+4
	ldr	r3, [r3, r1, lsl #2]
	eor	r3, r3, r2
	str	r3, [fp, #-40]
	ldr	r3, [fp, #-40]
	lsr	r3, r3, #8
	and	r3, r3, #255
	mov	r2, r3
	ldr	r3, .L27+4
	ldr	r2, [r3, r2, lsl #2]
	ldr	r3, [fp, #-8]
	eor	r2, r2, r3
	ldr	r3, [fp, #-40]
	lsr	r3, r3, #16
	and	r3, r3, #255
	mov	r1, r3
	ldr	r3, .L27+8
	ldr	r3, [r3, r1, lsl #2]
	eor	r2, r2, r3
	ldr	r3, [fp, #-40]
	and	r3, r3, #255
	mov	r1, r3
	ldr	r3, .L27+12
	ldr	r3, [r3, r1, lsl #2]
	eor	r2, r2, r3
	ldr	r3, [fp, #-40]
	lsr	r3, r3, #24
	and	r3, r3, #255
	mov	r1, r3
	ldr	r3, .L27+16
	ldr	r3, [r3, r1, lsl #2]
	eor	r2, r2, r3
	ldr	r3, [fp, #-12]
	and	r3, r3, #255
	mov	r1, r3
	ldr	r3, .L27+8
	ldr	r3, [r3, r1, lsl #2]
	eor	r3, r3, r2
	str	r3, [fp, #-44]
	ldr	r3, [fp, #-40]
	lsr	r3, r3, #24
	and	r3, r3, #255
	mov	r2, r3
	ldr	r3, .L27+4
	ldr	r3, [r3, r2, lsl #2]
	and	r2, r3, #255
	ldr	r3, [fp, #-40]
	lsr	r3, r3, #16
	and	r3, r3, #255
	mov	r1, r3
	ldr	r3, .L27+8
	ldr	r3, [r3, r1, lsl #2]
	and	r3, r3, #255
	eor	r3, r3, r2
	and	r2, r3, #255
	ldr	r3, [fp, #-36]
	and	r3, r3, #255
	mov	r1, r3
	ldr	r3, .L27+12
	ldr	r3, [r3, r1, lsl #2]
	and	r3, r3, #255
	eor	r3, r3, r2
	and	r2, r3, #255
	ldr	r3, [fp, #-36]
	lsr	r3, r3, #8
	and	r3, r3, #255
	mov	r1, r3
	ldr	r3, .L27+16
	ldr	r3, [r3, r1, lsl #2]
	and	r3, r3, #255
	eor	r3, r3, r2
	and	r2, r3, #255
	ldr	r3, [fp, #-32]
	lsr	r3, r3, #8
	and	r3, r3, #255
	mov	r1, r3
	ldr	r3, .L27+4
	ldr	r3, [r3, r1, lsl #2]
	and	r3, r3, #255
	eor	r3, r3, r2
	and	r3, r3, #255
	and	r3, r3, #31
	and	r2, r3, #255
	ldr	r3, [fp, #-48]
	strb	r2, [r3, #4]
	ldr	r3, [fp, #-40]
	lsr	r3, r3, #8
	and	r3, r3, #255
	mov	r2, r3
	ldr	r3, .L27+4
	ldr	r3, [r3, r2, lsl #2]
	and	r2, r3, #255
	ldr	r3, [fp, #-40]
	and	r3, r3, #255
	mov	r1, r3
	ldr	r3, .L27+8
	ldr	r3, [r3, r1, lsl #2]
	and	r3, r3, #255
	eor	r3, r3, r2
	and	r2, r3, #255
	ldr	r3, [fp, #-36]
	lsr	r3, r3, #16
	and	r3, r3, #255
	mov	r1, r3
	ldr	r3, .L27+12
	ldr	r3, [r3, r1, lsl #2]
	and	r3, r3, #255
	eor	r3, r3, r2
	and	r2, r3, #255
	ldr	r3, [fp, #-36]
	lsr	r3, r3, #24
	and	r3, r3, #255
	mov	r1, r3
	ldr	r3, .L27+16
	ldr	r3, [r3, r1, lsl #2]
	and	r3, r3, #255
	eor	r3, r3, r2
	and	r2, r3, #255
	ldr	r3, [fp, #-36]
	lsr	r3, r3, #8
	and	r3, r3, #255
	mov	r1, r3
	ldr	r3, .L27+8
	ldr	r3, [r3, r1, lsl #2]
	and	r3, r3, #255
	eor	r3, r3, r2
	and	r3, r3, #255
	and	r3, r3, #31
	and	r2, r3, #255
	ldr	r3, [fp, #-48]
	strb	r2, [r3, #5]
	ldr	r3, [fp, #-44]
	lsr	r3, r3, #24
	and	r3, r3, #255
	mov	r2, r3
	ldr	r3, .L27+4
	ldr	r3, [r3, r2, lsl #2]
	and	r2, r3, #255
	ldr	r3, [fp, #-44]
	lsr	r3, r3, #16
	and	r3, r3, #255
	mov	r1, r3
	ldr	r3, .L27+8
	ldr	r3, [r3, r1, lsl #2]
	and	r3, r3, #255
	eor	r3, r3, r2
	and	r2, r3, #255
	ldr	r3, [fp, #-32]
	and	r3, r3, #255
	mov	r1, r3
	ldr	r3, .L27+12
	ldr	r3, [r3, r1, lsl #2]
	and	r3, r3, #255
	eor	r3, r3, r2
	and	r2, r3, #255
	ldr	r3, [fp, #-32]
	lsr	r3, r3, #8
	and	r3, r3, #255
	mov	r1, r3
	ldr	r3, .L27+16
	ldr	r3, [r3, r1, lsl #2]
	and	r3, r3, #255
	eor	r3, r3, r2
	and	r2, r3, #255
	ldr	r3, [fp, #-40]
	lsr	r3, r3, #16
	and	r3, r3, #255
	mov	r1, r3
	ldr	r3, .L27+12
	ldr	r3, [r3, r1, lsl #2]
	and	r3, r3, #255
	eor	r3, r3, r2
	and	r3, r3, #255
	and	r3, r3, #31
	and	r2, r3, #255
	ldr	r3, [fp, #-48]
	strb	r2, [r3, #6]
	ldr	r3, [fp, #-44]
	lsr	r3, r3, #8
	and	r3, r3, #255
	mov	r2, r3
	ldr	r3, .L27+4
	ldr	r3, [r3, r2, lsl #2]
	and	r2, r3, #255
	ldr	r3, [fp, #-44]
	and	r3, r3, #255
	mov	r1, r3
	ldr	r3, .L27+8
	ldr	r3, [r3, r1, lsl #2]
	and	r3, r3, #255
	eor	r3, r3, r2
	and	r2, r3, #255
	ldr	r3, [fp, #-32]
	lsr	r3, r3, #16
	and	r3, r3, #255
	mov	r1, r3
	ldr	r3, .L27+12
	ldr	r3, [r3, r1, lsl #2]
	and	r3, r3, #255
	eor	r3, r3, r2
	and	r2, r3, #255
	ldr	r3, [fp, #-32]
	lsr	r3, r3, #24
	and	r3, r3, #255
	mov	r1, r3
	ldr	r3, .L27+16
	ldr	r3, [r3, r1, lsl #2]
	and	r3, r3, #255
	eor	r3, r3, r2
	and	r2, r3, #255
	ldr	r3, [fp, #-44]
	lsr	r3, r3, #24
	and	r3, r3, #255
	mov	r1, r3
	ldr	r3, .L27+16
	ldr	r3, [r3, r1, lsl #2]
	and	r3, r3, #255
	eor	r3, r3, r2
	and	r3, r3, #255
	and	r3, r3, #31
	and	r2, r3, #255
	ldr	r3, [fp, #-48]
	strb	r2, [r3, #7]
	ldr	r3, [fp, #-36]
	lsr	r3, r3, #16
	and	r3, r3, #255
	mov	r2, r3
	ldr	r3, .L27+4
	ldr	r2, [r3, r2, lsl #2]
	ldr	r3, [fp, #-40]
	eor	r2, r2, r3
	ldr	r3, [fp, #-36]
	and	r3, r3, #255
	mov	r1, r3
	ldr	r3, .L27+8
	ldr	r3, [r3, r1, lsl #2]
	eor	r2, r2, r3
	ldr	r3, [fp, #-36]
	lsr	r3, r3, #24
	and	r3, r3, #255
	mov	r1, r3
	ldr	r3, .L27+12
	ldr	r3, [r3, r1, lsl #2]
	eor	r2, r2, r3
	ldr	r3, [fp, #-36]
	lsr	r3, r3, #8
	and	r3, r3, #255
	mov	r1, r3
	ldr	r3, .L27+16
	ldr	r3, [r3, r1, lsl #2]
	eor	r2, r2, r3
	ldr	r3, [fp, #-32]
	lsr	r3, r3, #24
	and	r3, r3, #255
	mov	r1, r3
	ldr	r3, .L27+12
	ldr	r3, [r3, r1, lsl #2]
	eor	r3, r3, r2
	str	r3, [fp, #-28]
	ldr	r3, [fp, #-28]
	lsr	r3, r3, #24
	and	r3, r3, #255
	mov	r2, r3
	ldr	r3, .L27+4
	ldr	r2, [r3, r2, lsl #2]
	ldr	r3, [fp, #-32]
	eor	r2, r2, r3
	ldr	r3, [fp, #-28]
	lsr	r3, r3, #8
	and	r3, r3, #255
	mov	r1, r3
	ldr	r3, .L27+8
	ldr	r3, [r3, r1, lsl #2]
	eor	r2, r2, r3
	ldr	r3, [fp, #-28]
	lsr	r3, r3, #16
	and	r3, r3, #255
	mov	r1, r3
	ldr	r3, .L27+12
	ldr	r3, [r3, r1, lsl #2]
	eor	r2, r2, r3
	ldr	r3, [fp, #-28]
	and	r3, r3, #255
	mov	r1, r3
	ldr	r3, .L27+16
	ldr	r3, [r3, r1, lsl #2]
	eor	r2, r2, r3
	ldr	r3, [fp, #-32]
	lsr	r3, r3, #8
	and	r3, r3, #255
	mov	r1, r3
	ldr	r3, .L27+16
	ldr	r3, [r3, r1, lsl #2]
	eor	r3, r3, r2
	str	r3, [fp, #-8]
	ldr	r3, [fp, #-8]
	and	r3, r3, #255
	mov	r2, r3
	ldr	r3, .L27+4
	ldr	r2, [r3, r2, lsl #2]
	ldr	r3, [fp, #-36]
	eor	r2, r2, r3
	ldr	r3, [fp, #-8]
	lsr	r3, r3, #8
	and	r3, r3, #255
	mov	r1, r3
	ldr	r3, .L27+8
	ldr	r3, [r3, r1, lsl #2]
	eor	r2, r2, r3
	ldr	r3, [fp, #-8]
	lsr	r3, r3, #16
	and	r3, r3, #255
	mov	r1, r3
	ldr	r3, .L27+12
	ldr	r3, [r3, r1, lsl #2]
	eor	r2, r2, r3
	ldr	r3, [fp, #-8]
	lsr	r3, r3, #24
	and	r3, r3, #255
	mov	r1, r3
	ldr	r3, .L27+16
	ldr	r3, [r3, r1, lsl #2]
	eor	r2, r2, r3
	ldr	r3, [fp, #-32]
	lsr	r3, r3, #16
	and	r3, r3, #255
	mov	r1, r3
	ldr	r3, .L27+4
	ldr	r3, [r3, r1, lsl #2]
	eor	r3, r3, r2
	str	r3, [fp, #-12]
	ldr	r3, [fp, #-12]
	lsr	r3, r3, #8
	and	r3, r3, #255
	mov	r2, r3
	ldr	r3, .L27+4
	ldr	r2, [r3, r2, lsl #2]
	ldr	r3, [fp, #-44]
	eor	r2, r2, r3
	ldr	r3, [fp, #-12]
	lsr	r3, r3, #16
	and	r3, r3, #255
	mov	r1, r3
	ldr	r3, .L27+8
	ldr	r3, [r3, r1, lsl #2]
	eor	r2, r2, r3
	ldr	r3, [fp, #-12]
	and	r3, r3, #255
	mov	r1, r3
	ldr	r3, .L27+12
	ldr	r3, [r3, r1, lsl #2]
	eor	r2, r2, r3
	ldr	r3, [fp, #-12]
	lsr	r3, r3, #24
	and	r3, r3, #255
	mov	r1, r3
	ldr	r3, .L27+16
	ldr	r3, [r3, r1, lsl #2]
	eor	r2, r2, r3
	ldr	r3, [fp, #-32]
	and	r3, r3, #255
	mov	r1, r3
	ldr	r3, .L27+8
	ldr	r3, [r3, r1, lsl #2]
	eor	r3, r3, r2
	str	r3, [fp, #-16]
	ldr	r3, [fp, #-28]
	and	r3, r3, #255
	mov	r2, r3
	ldr	r3, .L27+4
	ldr	r3, [r3, r2, lsl #2]
	and	r2, r3, #255
	ldr	r3, [fp, #-28]
	lsr	r3, r3, #8
	and	r3, r3, #255
	mov	r1, r3
	ldr	r3, .L27+8
	ldr	r3, [r3, r1, lsl #2]
	and	r3, r3, #255
	eor	r3, r3, r2
	and	r2, r3, #255
	ldr	r3, [fp, #-16]
	lsr	r3, r3, #24
	and	r3, r3, #255
	mov	r1, r3
	ldr	r3, .L27+12
	ldr	r3, [r3, r1, lsl #2]
	and	r3, r3, #255
	eor	r3, r3, r2
	and	r2, r3, #255
	ldr	r3, [fp, #-16]
	lsr	r3, r3, #16
	and	r3, r3, #255
	mov	r1, r3
	ldr	r3, .L27+16
	ldr	r3, [r3, r1, lsl #2]
	and	r3, r3, #255
	eor	r3, r3, r2
	and	r2, r3, #255
	ldr	r3, [fp, #-12]
	lsr	r3, r3, #24
	and	r3, r3, #255
	mov	r1, r3
	ldr	r3, .L27+4
	ldr	r3, [r3, r1, lsl #2]
	and	r3, r3, #255
	eor	r3, r3, r2
	and	r3, r3, #255
	and	r3, r3, #31
	and	r2, r3, #255
	ldr	r3, [fp, #-48]
	strb	r2, [r3, #8]
	ldr	r3, [fp, #-28]
	lsr	r3, r3, #16
	and	r3, r3, #255
	mov	r2, r3
	ldr	r3, .L27+4
	ldr	r3, [r3, r2, lsl #2]
	and	r2, r3, #255
	ldr	r3, [fp, #-28]
	lsr	r3, r3, #24
	and	r3, r3, #255
	mov	r1, r3
	ldr	r3, .L27+8
	ldr	r3, [r3, r1, lsl #2]
	and	r3, r3, #255
	eor	r3, r3, r2
	and	r2, r3, #255
	ldr	r3, [fp, #-16]
	lsr	r3, r3, #8
	and	r3, r3, #255
	mov	r1, r3
	ldr	r3, .L27+12
	ldr	r3, [r3, r1, lsl #2]
	and	r3, r3, #255
	eor	r3, r3, r2
	and	r2, r3, #255
	ldr	r3, [fp, #-16]
	and	r3, r3, #255
	mov	r1, r3
	ldr	r3, .L27+16
	ldr	r3, [r3, r1, lsl #2]
	and	r3, r3, #255
	eor	r3, r3, r2
	and	r2, r3, #255
	ldr	r3, [fp, #-16]
	lsr	r3, r3, #16
	and	r3, r3, #255
	mov	r1, r3
	ldr	r3, .L27+8
	ldr	r3, [r3, r1, lsl #2]
	and	r3, r3, #255
	eor	r3, r3, r2
	and	r3, r3, #255
	and	r3, r3, #31
	and	r2, r3, #255
	ldr	r3, [fp, #-48]
	strb	r2, [r3, #9]
	ldr	r3, [fp, #-8]
	and	r3, r3, #255
	mov	r2, r3
	ldr	r3, .L27+4
	ldr	r3, [r3, r2, lsl #2]
	and	r2, r3, #255
	ldr	r3, [fp, #-8]
	lsr	r3, r3, #8
	and	r3, r3, #255
	mov	r1, r3
	ldr	r3, .L27+8
	ldr	r3, [r3, r1, lsl #2]
	and	r3, r3, #255
	eor	r3, r3, r2
	and	r2, r3, #255
	ldr	r3, [fp, #-12]
	lsr	r3, r3, #24
	and	r3, r3, #255
	mov	r1, r3
	ldr	r3, .L27+12
	ldr	r3, [r3, r1, lsl #2]
	and	r3, r3, #255
	eor	r3, r3, r2
	and	r2, r3, #255
	ldr	r3, [fp, #-12]
	lsr	r3, r3, #16
	and	r3, r3, #255
	mov	r1, r3
	ldr	r3, .L27+16
	ldr	r3, [r3, r1, lsl #2]
	and	r3, r3, #255
	eor	r3, r3, r2
	and	r2, r3, #255
	ldr	r3, [fp, #-28]
	and	r3, r3, #255
	mov	r1, r3
	ldr	r3, .L27+12
	ldr	r3, [r3, r1, lsl #2]
	and	r3, r3, #255
	eor	r3, r3, r2
	and	r3, r3, #255
	and	r3, r3, #31
	and	r2, r3, #255
	ldr	r3, [fp, #-48]
	strb	r2, [r3, #10]
	ldr	r3, [fp, #-8]
	lsr	r3, r3, #16
	and	r3, r3, #255
	mov	r2, r3
	ldr	r3, .L27+4
	ldr	r3, [r3, r2, lsl #2]
	and	r2, r3, #255
	ldr	r3, [fp, #-8]
	lsr	r3, r3, #24
	and	r3, r3, #255
	mov	r1, r3
	ldr	r3, .L27+8
	ldr	r3, [r3, r1, lsl #2]
	and	r3, r3, #255
	eor	r3, r3, r2
	and	r2, r3, #255
	ldr	r3, [fp, #-12]
	lsr	r3, r3, #8
	and	r3, r3, #255
	mov	r1, r3
	ldr	r3, .L27+12
	ldr	r3, [r3, r1, lsl #2]
	and	r3, r3, #255
	eor	r3, r3, r2
	and	r2, r3, #255
	ldr	r3, [fp, #-12]
	and	r3, r3, #255
	mov	r1, r3
	ldr	r3, .L27+16
	ldr	r3, [r3, r1, lsl #2]
	and	r3, r3, #255
	eor	r3, r3, r2
	and	r2, r3, #255
	ldr	r3, [fp, #-8]
	and	r3, r3, #255
	mov	r1, r3
	ldr	r3, .L27+16
	ldr	r3, [r3, r1, lsl #2]
	and	r3, r3, #255
	eor	r3, r3, r2
	and	r3, r3, #255
	and	r3, r3, #31
	and	r2, r3, #255
	ldr	r3, [fp, #-48]
	strb	r2, [r3, #11]
	ldr	r3, [fp, #-16]
	lsr	r3, r3, #16
	and	r3, r3, #255
	mov	r2, r3
	ldr	r3, .L27+4
	ldr	r2, [r3, r2, lsl #2]
	ldr	r3, [fp, #-28]
	eor	r2, r2, r3
	ldr	r3, [fp, #-16]
	and	r3, r3, #255
	mov	r1, r3
	ldr	r3, .L27+8
	ldr	r3, [r3, r1, lsl #2]
	eor	r2, r2, r3
	ldr	r3, [fp, #-16]
	lsr	r3, r3, #24
	and	r3, r3, #255
	mov	r1, r3
	ldr	r3, .L27+12
	ldr	r3, [r3, r1, lsl #2]
	eor	r2, r2, r3
	ldr	r3, [fp, #-16]
	lsr	r3, r3, #8
	and	r3, r3, #255
	mov	r1, r3
	ldr	r3, .L27+16
	ldr	r3, [r3, r1, lsl #2]
	eor	r2, r2, r3
	ldr	r3, [fp, #-12]
	lsr	r3, r3, #24
	and	r3, r3, #255
	mov	r1, r3
	ldr	r3, .L27+12
	ldr	r3, [r3, r1, lsl #2]
	eor	r3, r3, r2
	str	r3, [fp, #-32]
	ldr	r3, [fp, #-32]
	lsr	r3, r3, #24
	and	r3, r3, #255
	mov	r2, r3
	ldr	r3, .L27+4
	ldr	r2, [r3, r2, lsl #2]
	ldr	r3, [fp, #-12]
	eor	r2, r2, r3
	ldr	r3, [fp, #-32]
	lsr	r3, r3, #8
	and	r3, r3, #255
	mov	r1, r3
	ldr	r3, .L27+8
	ldr	r3, [r3, r1, lsl #2]
	eor	r2, r2, r3
	ldr	r3, [fp, #-32]
	lsr	r3, r3, #16
	and	r3, r3, #255
	mov	r1, r3
	ldr	r3, .L27+12
	ldr	r3, [r3, r1, lsl #2]
	eor	r2, r2, r3
	ldr	r3, [fp, #-32]
	and	r3, r3, #255
	mov	r1, r3
	ldr	r3, .L27+16
	ldr	r3, [r3, r1, lsl #2]
	eor	r2, r2, r3
	ldr	r3, [fp, #-12]
	lsr	r3, r3, #8
	and	r3, r3, #255
	mov	r1, r3
	ldr	r3, .L27+16
	ldr	r3, [r3, r1, lsl #2]
	eor	r3, r3, r2
	str	r3, [fp, #-36]
	ldr	r3, [fp, #-36]
	and	r3, r3, #255
	mov	r2, r3
	ldr	r3, .L27+4
	ldr	r2, [r3, r2, lsl #2]
	ldr	r3, [fp, #-16]
	eor	r2, r2, r3
	ldr	r3, [fp, #-36]
	lsr	r3, r3, #8
	and	r3, r3, #255
	mov	r1, r3
	ldr	r3, .L27+8
	ldr	r3, [r3, r1, lsl #2]
	eor	r2, r2, r3
	ldr	r3, [fp, #-36]
	lsr	r3, r3, #16
	and	r3, r3, #255
	mov	r1, r3
	ldr	r3, .L27+12
	ldr	r3, [r3, r1, lsl #2]
	eor	r2, r2, r3
	ldr	r3, [fp, #-36]
	lsr	r3, r3, #24
	and	r3, r3, #255
	mov	r1, r3
	ldr	r3, .L27+16
	ldr	r3, [r3, r1, lsl #2]
	eor	r2, r2, r3
	ldr	r3, [fp, #-12]
	lsr	r3, r3, #16
	and	r3, r3, #255
	mov	r1, r3
	ldr	r3, .L27+4
	ldr	r3, [r3, r1, lsl #2]
	eor	r3, r3, r2
	str	r3, [fp, #-40]
	ldr	r3, [fp, #-40]
	lsr	r3, r3, #8
	and	r3, r3, #255
	mov	r2, r3
	ldr	r3, .L27+4
	ldr	r2, [r3, r2, lsl #2]
	ldr	r3, [fp, #-8]
	eor	r2, r2, r3
	ldr	r3, [fp, #-40]
	lsr	r3, r3, #16
	and	r3, r3, #255
	mov	r1, r3
	ldr	r3, .L27+8
	ldr	r3, [r3, r1, lsl #2]
	eor	r2, r2, r3
	ldr	r3, [fp, #-40]
	and	r3, r3, #255
	mov	r1, r3
	ldr	r3, .L27+12
	ldr	r3, [r3, r1, lsl #2]
	eor	r2, r2, r3
	ldr	r3, [fp, #-40]
	lsr	r3, r3, #24
	and	r3, r3, #255
	mov	r1, r3
	ldr	r3, .L27+16
	ldr	r3, [r3, r1, lsl #2]
	eor	r2, r2, r3
	ldr	r3, [fp, #-12]
	and	r3, r3, #255
	mov	r1, r3
	ldr	r3, .L27+8
	ldr	r3, [r3, r1, lsl #2]
	eor	r3, r3, r2
	str	r3, [fp, #-44]
	ldr	r3, [fp, #-32]
	and	r3, r3, #255
	mov	r2, r3
	ldr	r3, .L27+4
	ldr	r3, [r3, r2, lsl #2]
	and	r2, r3, #255
	ldr	r3, [fp, #-32]
	lsr	r3, r3, #8
	and	r3, r3, #255
	mov	r1, r3
	ldr	r3, .L27+8
	ldr	r3, [r3, r1, lsl #2]
	and	r3, r3, #255
	eor	r3, r3, r2
	and	r2, r3, #255
	ldr	r3, [fp, #-44]
	lsr	r3, r3, #24
	and	r3, r3, #255
	mov	r1, r3
	ldr	r3, .L27+12
	ldr	r3, [r3, r1, lsl #2]
	and	r3, r3, #255
	eor	r3, r3, r2
	and	r2, r3, #255
	ldr	r3, [fp, #-44]
	lsr	r3, r3, #16
	and	r3, r3, #255
	mov	r1, r3
	ldr	r3, .L27+16
	ldr	r3, [r3, r1, lsl #2]
	and	r3, r3, #255
	eor	r3, r3, r2
	and	r2, r3, #255
	ldr	r3, [fp, #-40]
	lsr	r3, r3, #16
	and	r3, r3, #255
	mov	r1, r3
	ldr	r3, .L27+4
	ldr	r3, [r3, r1, lsl #2]
	and	r3, r3, #255
	eor	r3, r3, r2
	and	r3, r3, #255
	and	r3, r3, #31
	and	r2, r3, #255
	ldr	r3, [fp, #-48]
	strb	r2, [r3, #12]
	ldr	r3, [fp, #-32]
	lsr	r3, r3, #16
	and	r3, r3, #255
	mov	r2, r3
	ldr	r3, .L27+4
	ldr	r3, [r3, r2, lsl #2]
	and	r2, r3, #255
	ldr	r3, [fp, #-32]
	lsr	r3, r3, #24
	and	r3, r3, #255
	mov	r1, r3
	ldr	r3, .L27+8
	ldr	r3, [r3, r1, lsl #2]
	and	r3, r3, #255
	eor	r3, r3, r2
	and	r2, r3, #255
	ldr	r3, [fp, #-44]
	lsr	r3, r3, #8
	and	r3, r3, #255
	mov	r1, r3
	ldr	r3, .L27+12
	ldr	r3, [r3, r1, lsl #2]
	and	r3, r3, #255
	eor	r3, r3, r2
	and	r2, r3, #255
	ldr	r3, [fp, #-44]
	and	r3, r3, #255
	mov	r1, r3
	ldr	r3, .L27+16
	ldr	r3, [r3, r1, lsl #2]
	and	r3, r3, #255
	eor	r3, r3, r2
	and	r2, r3, #255
	ldr	r3, [fp, #-44]
	lsr	r3, r3, #24
	and	r3, r3, #255
	mov	r1, r3
	ldr	r3, .L27+8
	ldr	r3, [r3, r1, lsl #2]
	and	r3, r3, #255
	eor	r3, r3, r2
	and	r3, r3, #255
	and	r3, r3, #31
	and	r2, r3, #255
	ldr	r3, [fp, #-48]
	strb	r2, [r3, #13]
	ldr	r3, [fp, #-36]
	and	r3, r3, #255
	mov	r2, r3
	ldr	r3, .L27+4
	ldr	r3, [r3, r2, lsl #2]
	and	r2, r3, #255
	ldr	r3, [fp, #-36]
	lsr	r3, r3, #8
	and	r3, r3, #255
	mov	r1, r3
	ldr	r3, .L27+8
	ldr	r3, [r3, r1, lsl #2]
	and	r3, r3, #255
	eor	r3, r3, r2
	and	r2, r3, #255
	ldr	r3, [fp, #-40]
	lsr	r3, r3, #24
	and	r3, r3, #255
	mov	r1, r3
	ldr	r3, .L27+12
	ldr	r3, [r3, r1, lsl #2]
	and	r3, r3, #255
	eor	r3, r3, r2
	and	r2, r3, #255
	ldr	r3, [fp, #-40]
	lsr	r3, r3, #16
	and	r3, r3, #255
	mov	r1, r3
	ldr	r3, .L27+16
	ldr	r3, [r3, r1, lsl #2]
	and	r3, r3, #255
	eor	r3, r3, r2
	and	r2, r3, #255
	ldr	r3, [fp, #-32]
	lsr	r3, r3, #8
	and	r3, r3, #255
	mov	r1, r3
	ldr	r3, .L30
	ldr	r3, [r3, r1, lsl #2]
	and	r3, r3, #255
	eor	r3, r3, r2
	and	r3, r3, #255
	and	r3, r3, #31
	and	r2, r3, #255
	ldr	r3, [fp, #-48]
	strb	r2, [r3, #14]
	ldr	r3, [fp, #-36]
	lsr	r3, r3, #16
	and	r3, r3, #255
	mov	r2, r3
	ldr	r3, .L30+4
	ldr	r3, [r3, r2, lsl #2]
	and	r2, r3, #255
	ldr	r3, [fp, #-36]
	lsr	r3, r3, #24
	and	r3, r3, #255
	mov	r1, r3
	ldr	r3, .L30+8
	ldr	r3, [r3, r1, lsl #2]
	and	r3, r3, #255
	eor	r3, r3, r2
	and	r2, r3, #255
	ldr	r3, [fp, #-40]
	lsr	r3, r3, #8
	and	r3, r3, #255
	mov	r1, r3
	ldr	r3, .L30
	ldr	r3, [r3, r1, lsl #2]
	and	r3, r3, #255
	eor	r3, r3, r2
	and	r2, r3, #255
	ldr	r3, [fp, #-40]
	and	r3, r3, #255
	mov	r1, r3
	ldr	r3, .L30+12
	ldr	r3, [r3, r1, lsl #2]
	and	r3, r3, #255
	eor	r3, r3, r2
	and	r2, r3, #255
	ldr	r3, [fp, #-36]
	lsr	r3, r3, #8
	and	r3, r3, #255
	mov	r1, r3
	ldr	r3, .L30+12
	ldr	r3, [r3, r1, lsl #2]
	and	r3, r3, #255
	eor	r3, r3, r2
	and	r3, r3, #255
	and	r3, r3, #31
	and	r2, r3, #255
	ldr	r3, [fp, #-48]
	strb	r2, [r3, #15]
	ldr	r3, [fp, #-36]
	lsr	r3, r3, #16
	and	r3, r3, #255
	mov	r2, r3
	ldr	r3, .L30+4
	ldr	r2, [r3, r2, lsl #2]
	ldr	r3, [fp, #-40]
	eor	r2, r2, r3
	ldr	r3, [fp, #-36]
	and	r3, r3, #255
	mov	r1, r3
	ldr	r3, .L30+8
	ldr	r3, [r3, r1, lsl #2]
	eor	r2, r2, r3
	ldr	r3, [fp, #-36]
	lsr	r3, r3, #24
	and	r3, r3, #255
	mov	r1, r3
	ldr	r3, .L30
	ldr	r3, [r3, r1, lsl #2]
	eor	r2, r2, r3
	ldr	r3, [fp, #-36]
	lsr	r3, r3, #8
	and	r3, r3, #255
	mov	r1, r3
	ldr	r3, .L30+12
	ldr	r3, [r3, r1, lsl #2]
	eor	r2, r2, r3
	ldr	r3, [fp, #-32]
	lsr	r3, r3, #24
	and	r3, r3, #255
	mov	r1, r3
	ldr	r3, .L30
	ldr	r3, [r3, r1, lsl #2]
	eor	r3, r3, r2
	str	r3, [fp, #-28]
	ldr	r3, [fp, #-28]
	lsr	r3, r3, #24
	and	r3, r3, #255
	mov	r2, r3
	ldr	r3, .L30+4
	ldr	r2, [r3, r2, lsl #2]
	ldr	r3, [fp, #-32]
	eor	r2, r2, r3
	ldr	r3, [fp, #-28]
	lsr	r3, r3, #8
	and	r3, r3, #255
	mov	r1, r3
	ldr	r3, .L30+8
	ldr	r3, [r3, r1, lsl #2]
	eor	r2, r2, r3
	ldr	r3, [fp, #-28]
	lsr	r3, r3, #16
	and	r3, r3, #255
	mov	r1, r3
	ldr	r3, .L30
	ldr	r3, [r3, r1, lsl #2]
	eor	r2, r2, r3
	ldr	r3, [fp, #-28]
	and	r3, r3, #255
	mov	r1, r3
	ldr	r3, .L30+12
	ldr	r3, [r3, r1, lsl #2]
	eor	r2, r2, r3
	ldr	r3, [fp, #-32]
	lsr	r3, r3, #8
	and	r3, r3, #255
	mov	r1, r3
	ldr	r3, .L30+12
	ldr	r3, [r3, r1, lsl #2]
	eor	r3, r3, r2
	str	r3, [fp, #-8]
	ldr	r3, [fp, #-8]
	and	r3, r3, #255
	mov	r2, r3
	ldr	r3, .L30+4
	ldr	r2, [r3, r2, lsl #2]
	ldr	r3, [fp, #-36]
	eor	r2, r2, r3
	ldr	r3, [fp, #-8]
	lsr	r3, r3, #8
	and	r3, r3, #255
	mov	r1, r3
	ldr	r3, .L30+8
	ldr	r3, [r3, r1, lsl #2]
	eor	r2, r2, r3
	ldr	r3, [fp, #-8]
	lsr	r3, r3, #16
	and	r3, r3, #255
	mov	r1, r3
	ldr	r3, .L30
	ldr	r3, [r3, r1, lsl #2]
	eor	r2, r2, r3
	ldr	r3, [fp, #-8]
	lsr	r3, r3, #24
	and	r3, r3, #255
	mov	r1, r3
	ldr	r3, .L30+12
	ldr	r3, [r3, r1, lsl #2]
	eor	r2, r2, r3
	ldr	r3, [fp, #-32]
	lsr	r3, r3, #16
	and	r3, r3, #255
	mov	r1, r3
	ldr	r3, .L30+4
	ldr	r3, [r3, r1, lsl #2]
	eor	r3, r3, r2
	str	r3, [fp, #-12]
	ldr	r3, [fp, #-12]
	lsr	r3, r3, #8
	and	r3, r3, #255
	mov	r2, r3
	ldr	r3, .L30+4
	ldr	r2, [r3, r2, lsl #2]
	ldr	r3, [fp, #-44]
	eor	r2, r2, r3
	ldr	r3, [fp, #-12]
	lsr	r3, r3, #16
	and	r3, r3, #255
	mov	r1, r3
	ldr	r3, .L30+8
	ldr	r3, [r3, r1, lsl #2]
	eor	r2, r2, r3
	ldr	r3, [fp, #-12]
	and	r3, r3, #255
	mov	r1, r3
	ldr	r3, .L30
	ldr	r3, [r3, r1, lsl #2]
	eor	r2, r2, r3
	ldr	r3, [fp, #-12]
	lsr	r3, r3, #24
	and	r3, r3, #255
	mov	r1, r3
	ldr	r3, .L30+12
	ldr	r3, [r3, r1, lsl #2]
	eor	r2, r2, r3
	ldr	r3, [fp, #-32]
	and	r3, r3, #255
	mov	r1, r3
	ldr	r3, .L30+8
	ldr	r3, [r3, r1, lsl #2]
	eor	r3, r3, r2
	str	r3, [fp, #-16]
	ldr	r3, [fp, #-24]
	cmp	r3, #0
	beq	.L24
	ldr	r3, [fp, #-12]
	lsr	r3, r3, #24
	and	r3, r3, #255
	mov	r2, r3
	ldr	r3, .L30+4
	ldr	r3, [r3, r2, lsl #2]
	and	r2, r3, #255
	ldr	r3, [fp, #-12]
	lsr	r3, r3, #16
	and	r3, r3, #255
	mov	r1, r3
	ldr	r3, .L30+8
	ldr	r3, [r3, r1, lsl #2]
	and	r3, r3, #255
	eor	r3, r3, r2
	and	r2, r3, #255
	ldr	r3, [fp, #-8]
	and	r3, r3, #255
	mov	r1, r3
	ldr	r3, .L30
	ldr	r3, [r3, r1, lsl #2]
	and	r3, r3, #255
	eor	r3, r3, r2
	and	r2, r3, #255
	ldr	r3, [fp, #-8]
	lsr	r3, r3, #8
	and	r3, r3, #255
	mov	r1, r3
	ldr	r3, .L30+12
	ldr	r3, [r3, r1, lsl #2]
	and	r3, r3, #255
	eor	r3, r3, r2
	and	r2, r3, #255
	ldr	r3, [fp, #-28]
	and	r3, r3, #255
	mov	r1, r3
	ldr	r3, .L30+4
	ldr	r3, [r3, r1, lsl #2]
	and	r3, r3, #255
	eor	r3, r3, r2
	and	r3, r3, #255
	and	r3, r3, #31
	and	r2, r3, #255
	ldr	r3, [fp, #-48]
	strb	r2, [r3, #16]
	ldr	r3, [fp, #-12]
	lsr	r3, r3, #8
	and	r3, r3, #255
	mov	r2, r3
	ldr	r3, .L30+4
	ldr	r3, [r3, r2, lsl #2]
	and	r2, r3, #255
	ldr	r3, [fp, #-12]
	and	r3, r3, #255
	mov	r1, r3
	ldr	r3, .L30+8
	ldr	r3, [r3, r1, lsl #2]
	and	r3, r3, #255
	eor	r3, r3, r2
	and	r2, r3, #255
	ldr	r3, [fp, #-8]
	lsr	r3, r3, #16
	and	r3, r3, #255
	mov	r1, r3
	ldr	r3, .L30
	ldr	r3, [r3, r1, lsl #2]
	and	r3, r3, #255
	eor	r3, r3, r2
	and	r2, r3, #255
	ldr	r3, [fp, #-8]
	lsr	r3, r3, #24
	and	r3, r3, #255
	mov	r1, r3
	ldr	r3, .L30+12
	ldr	r3, [r3, r1, lsl #2]
	and	r3, r3, #255
	eor	r3, r3, r2
	and	r2, r3, #255
	ldr	r3, [fp, #-8]
	and	r3, r3, #255
	mov	r1, r3
	ldr	r3, .L30+8
	ldr	r3, [r3, r1, lsl #2]
	and	r3, r3, #255
	eor	r3, r3, r2
	and	r3, r3, #255
	and	r3, r3, #31
	and	r2, r3, #255
	ldr	r3, [fp, #-48]
	strb	r2, [r3, #17]
	ldr	r3, [fp, #-16]
	lsr	r3, r3, #24
	and	r3, r3, #255
	mov	r2, r3
	ldr	r3, .L30+4
	ldr	r3, [r3, r2, lsl #2]
	and	r2, r3, #255
	ldr	r3, [fp, #-16]
	lsr	r3, r3, #16
	and	r3, r3, #255
	mov	r1, r3
	ldr	r3, .L30+8
	ldr	r3, [r3, r1, lsl #2]
	and	r3, r3, #255
	eor	r3, r3, r2
	and	r2, r3, #255
	ldr	r3, [fp, #-28]
	and	r3, r3, #255
	mov	r1, r3
	ldr	r3, .L30
	ldr	r3, [r3, r1, lsl #2]
	and	r3, r3, #255
	eor	r3, r3, r2
	and	r2, r3, #255
	ldr	r3, [fp, #-28]
	lsr	r3, r3, #8
	and	r3, r3, #255
	mov	r1, r3
	ldr	r3, .L30+12
	ldr	r3, [r3, r1, lsl #2]
	and	r3, r3, #255
	eor	r3, r3, r2
	and	r2, r3, #255
	ldr	r3, [fp, #-12]
	lsr	r3, r3, #24
	and	r3, r3, #255
	mov	r1, r3
	ldr	r3, .L30
	ldr	r3, [r3, r1, lsl #2]
	and	r3, r3, #255
	eor	r3, r3, r2
	and	r3, r3, #255
	and	r3, r3, #31
	and	r2, r3, #255
	ldr	r3, [fp, #-48]
	strb	r2, [r3, #18]
	ldr	r3, [fp, #-16]
	lsr	r3, r3, #8
	and	r3, r3, #255
	mov	r2, r3
	ldr	r3, .L30+4
	ldr	r3, [r3, r2, lsl #2]
	and	r2, r3, #255
	ldr	r3, [fp, #-16]
	and	r3, r3, #255
	mov	r1, r3
	ldr	r3, .L30+8
	ldr	r3, [r3, r1, lsl #2]
	and	r3, r3, #255
	eor	r3, r3, r2
	and	r2, r3, #255
	ldr	r3, [fp, #-28]
	lsr	r3, r3, #16
	and	r3, r3, #255
	mov	r1, r3
	ldr	r3, .L30
	ldr	r3, [r3, r1, lsl #2]
	and	r3, r3, #255
	eor	r3, r3, r2
	and	r2, r3, #255
	ldr	r3, [fp, #-28]
	lsr	r3, r3, #24
	and	r3, r3, #255
	mov	r1, r3
	ldr	r3, .L30+12
	ldr	r3, [r3, r1, lsl #2]
	and	r3, r3, #255
	eor	r3, r3, r2
	and	r2, r3, #255
	ldr	r3, [fp, #-16]
	lsr	r3, r3, #16
	and	r3, r3, #255
	mov	r1, r3
	ldr	r3, .L30+12
	ldr	r3, [r3, r1, lsl #2]
	and	r3, r3, #255
	eor	r3, r3, r2
	and	r3, r3, #255
	and	r3, r3, #31
	and	r2, r3, #255
	ldr	r3, [fp, #-48]
	strb	r2, [r3, #19]
.L24:
	ldr	r3, [fp, #-24]
	cmp	r3, #0
	beq	.L25
	mov	r2, #16
	b	.L26
.L25:
	mov	r2, #12
.L26:
	ldr	r3, [fp, #-48]
	str	r2, [r3]
	nop
	add	sp, fp, #0
	@ sp needed
	ldr	fp, [sp], #4
	bx	lr
.L31:
	.align	2
.L30:
	.word	cast_sbox7
	.word	cast_sbox5
	.word	cast_sbox6
	.word	cast_sbox8
	.size	cast128_set_key, .-cast128_set_key
	.align	2
	.global	beebs_nettle_cast128_initialise_benchmark
	.syntax unified
	.arm
	.fpu softvfp
	.type	beebs_nettle_cast128_initialise_benchmark, %function
beebs_nettle_cast128_initialise_benchmark:
	@ Function supports interworking.
	@ args = 0, pretend = 0, frame = 0
	@ frame_needed = 1, uses_anonymous_args = 0
	push	{fp, lr}
	add	fp, sp, #4
	ldr	r2, .L34
	mov	r1, #16
	ldr	r0, .L34+4
	bl	cast128_set_key
	mov	r3, #0
	mov	r0, r3
	sub	sp, fp, #4
	@ sp needed
	pop	{fp, lr}
	bx	lr
.L35:
	.align	2
.L34:
	.word	key
	.word	cast128_ctx
	.size	beebs_nettle_cast128_initialise_benchmark, .-beebs_nettle_cast128_initialise_benchmark
	.align	2
	.global	beebs_nettle_cast128_benchmark
	.syntax unified
	.arm
	.fpu softvfp
	.type	beebs_nettle_cast128_benchmark, %function
beebs_nettle_cast128_benchmark:
	@ Function supports interworking.
	@ args = 0, pretend = 0, frame = 0
	@ frame_needed = 1, uses_anonymous_args = 0
	push	{fp, lr}
	add	fp, sp, #4
	ldr	r3, .L38
	ldr	r2, .L38+4
	mov	r1, #16
	ldr	r0, .L38+8
	bl	cast128_encrypt
	ldr	r3, .L38+4
	ldr	r2, .L38+4
	mov	r1, #16
	ldr	r0, .L38+8
	bl	cast128_decrypt
	mov	r3, #0
	mov	r0, r3
	sub	sp, fp, #4
	@ sp needed
	pop	{fp, lr}
	bx	lr
.L39:
	.align	2
.L38:
	.word	data
	.word	result
	.word	cast128_ctx
	.size	beebs_nettle_cast128_benchmark, .-beebs_nettle_cast128_benchmark
	.section	.rodata
	.align	2
.LC0:
	.word	0
	.word	1
	.word	2
	.word	3
	.word	4
	.word	5
	.word	6
	.word	7
	.word	8
	.word	9
	.word	10
	.word	11
	.word	12
	.word	13
	.word	14
	.word	15
	.word	0
	.text
	.align	2
	.global	beebs_nettle_cast128_verify_benchmark
	.syntax unified
	.arm
	.fpu softvfp
	.type	beebs_nettle_cast128_verify_benchmark, %function
beebs_nettle_cast128_verify_benchmark:
	@ Function supports interworking.
	@ args = 0, pretend = 0, frame = 80
	@ frame_needed = 1, uses_anonymous_args = 0
	push	{fp, lr}
	add	fp, sp, #4
	sub	sp, sp, #80
	str	r0, [fp, #-80]
	ldr	r2, .L46
	sub	r3, fp, #76
	mov	r1, r2
	mov	r2, #68
	mov	r0, r3
	bl	memcpy
	mov	r3, #0
	str	r3, [fp, #-8]
	b	.L41
.L44:
	ldr	r2, .L46+4
	ldr	r3, [fp, #-8]
	add	r3, r2, r3
	ldrb	r3, [r3]	@ zero_extendqisi2
	mov	r2, r3
	ldr	r3, [fp, #-8]
	lsl	r3, r3, #2
	sub	r3, r3, #4
	add	r3, r3, fp
	ldr	r3, [r3, #-72]
	cmp	r2, r3
	beq	.L42
	mov	r3, #0
	b	.L45
.L42:
	ldr	r3, [fp, #-8]
	add	r3, r3, #1
	str	r3, [fp, #-8]
.L41:
	ldr	r3, [fp, #-8]
	cmp	r3, #15
	ble	.L44
	mov	r3, #1
.L45:
	mov	r0, r3
	sub	sp, fp, #4
	@ sp needed
	pop	{fp, lr}
	bx	lr
.L47:
	.align	2
.L46:
	.word	.LC0
	.word	result
	.size	beebs_nettle_cast128_verify_benchmark, .-beebs_nettle_cast128_verify_benchmark
	.ident	"GCC: (15:10.3-2021.07-4) 10.3.1 20210621 (release)"
