	.cpu arm7tdmi
	.eabi_attribute 20, 1
	.eabi_attribute 21, 1
	.eabi_attribute 23, 3
	.eabi_attribute 24, 1
	.eabi_attribute 25, 1
	.eabi_attribute 26, 1
	.eabi_attribute 30, 6
	.eabi_attribute 34, 0
	.eabi_attribute 18, 4
	.file	"libstatemate.c"
	.text
	.bss
	.align	2
Bitlist:
	.space	64
	.size	Bitlist, 64
	.global	tm_entered_EINSCHALTSTROM_MESSEN_BLOCK_ERKENNUNG_CTRLch_BLOCK_ERKENNUNG_CTRL__N_copy
	.align	2
	.type	tm_entered_EINSCHALTSTROM_MESSEN_BLOCK_ERKENNUNG_CTRLch_BLOCK_ERKENNUNG_CTRL__N_copy, %object
	.size	tm_entered_EINSCHALTSTROM_MESSEN_BLOCK_ERKENNUNG_CTRLch_BLOCK_ERKENNUNG_CTRL__N_copy, 4
tm_entered_EINSCHALTSTROM_MESSEN_BLOCK_ERKENNUNG_CTRLch_BLOCK_ERKENNUNG_CTRL__N_copy:
	.space	4
	.global	tm_entered_WIEDERHOLSPERRE_FH_TUERMODUL_CTRLexited_BEREIT_FH_TUERMODUL_CTRL
	.align	2
	.type	tm_entered_WIEDERHOLSPERRE_FH_TUERMODUL_CTRLexited_BEREIT_FH_TUERMODUL_CTRL, %object
	.size	tm_entered_WIEDERHOLSPERRE_FH_TUERMODUL_CTRLexited_BEREIT_FH_TUERMODUL_CTRL, 4
tm_entered_WIEDERHOLSPERRE_FH_TUERMODUL_CTRLexited_BEREIT_FH_TUERMODUL_CTRL:
	.space	4
	.global	tm_entered_WIEDERHOLSPERRE_FH_TUERMODUL_CTRL
	.align	2
	.type	tm_entered_WIEDERHOLSPERRE_FH_TUERMODUL_CTRL, %object
	.size	tm_entered_WIEDERHOLSPERRE_FH_TUERMODUL_CTRL, 4
tm_entered_WIEDERHOLSPERRE_FH_TUERMODUL_CTRL:
	.space	4
	.global	sc_FH_TUERMODUL_CTRL_2375_2
	.align	2
	.type	sc_FH_TUERMODUL_CTRL_2375_2, %object
	.size	sc_FH_TUERMODUL_CTRL_2375_2, 4
sc_FH_TUERMODUL_CTRL_2375_2:
	.space	4
	.global	sc_FH_TUERMODUL_CTRL_2352_1
	.align	2
	.type	sc_FH_TUERMODUL_CTRL_2352_1, %object
	.size	sc_FH_TUERMODUL_CTRL_2352_1, 4
sc_FH_TUERMODUL_CTRL_2352_1:
	.space	4
	.global	sc_FH_TUERMODUL_CTRL_2329_1
	.align	2
	.type	sc_FH_TUERMODUL_CTRL_2329_1, %object
	.size	sc_FH_TUERMODUL_CTRL_2329_1, 4
sc_FH_TUERMODUL_CTRL_2329_1:
	.space	4
	.global	FH_TUERMODUL_CTRL__N
	.align	2
	.type	FH_TUERMODUL_CTRL__N, %object
	.size	FH_TUERMODUL_CTRL__N, 4
FH_TUERMODUL_CTRL__N:
	.space	4
	.global	FH_TUERMODUL_CTRL__N_copy
	.align	2
	.type	FH_TUERMODUL_CTRL__N_copy, %object
	.size	FH_TUERMODUL_CTRL__N_copy, 4
FH_TUERMODUL_CTRL__N_copy:
	.space	4
	.global	FH_TUERMODUL_CTRL__N_old
	.align	2
	.type	FH_TUERMODUL_CTRL__N_old, %object
	.size	FH_TUERMODUL_CTRL__N_old, 4
FH_TUERMODUL_CTRL__N_old:
	.space	4
	.global	sc_FH_TUERMODUL_CTRL_1781_10
	.align	2
	.type	sc_FH_TUERMODUL_CTRL_1781_10, %object
	.size	sc_FH_TUERMODUL_CTRL_1781_10, 4
sc_FH_TUERMODUL_CTRL_1781_10:
	.space	4
	.global	sc_FH_TUERMODUL_CTRL_1739_10
	.align	2
	.type	sc_FH_TUERMODUL_CTRL_1739_10, %object
	.size	sc_FH_TUERMODUL_CTRL_1739_10, 4
sc_FH_TUERMODUL_CTRL_1739_10:
	.space	4
	.global	FH_TUERMODUL__POSITION
	.align	2
	.type	FH_TUERMODUL__POSITION, %object
	.size	FH_TUERMODUL__POSITION, 4
FH_TUERMODUL__POSITION:
	.space	4
	.global	FH_TUERMODUL__I_EIN
	.align	2
	.type	FH_TUERMODUL__I_EIN, %object
	.size	FH_TUERMODUL__I_EIN, 4
FH_TUERMODUL__I_EIN:
	.space	4
	.global	FH_TUERMODUL__I_EIN_old
	.align	2
	.type	FH_TUERMODUL__I_EIN_old, %object
	.size	FH_TUERMODUL__I_EIN_old, 4
FH_TUERMODUL__I_EIN_old:
	.space	4
	.global	FH_DU__MFH
	.align	2
	.type	FH_DU__MFH, %object
	.size	FH_DU__MFH, 4
FH_DU__MFH:
	.space	4
	.global	FH_DU__MFH_copy
	.align	2
	.type	FH_DU__MFH_copy, %object
	.size	FH_DU__MFH_copy, 4
FH_DU__MFH_copy:
	.space	4
	.global	FH_DU__POSITION
	.align	2
	.type	FH_DU__POSITION, %object
	.size	FH_DU__POSITION, 4
FH_DU__POSITION:
	.space	4
	.global	FH_DU__I_EIN
	.align	2
	.type	FH_DU__I_EIN, %object
	.size	FH_DU__I_EIN, 4
FH_DU__I_EIN:
	.space	4
	.global	FH_DU__I_EIN_old
	.align	2
	.type	FH_DU__I_EIN_old, %object
	.size	FH_DU__I_EIN_old, 4
FH_DU__I_EIN_old:
	.space	4
	.global	BLOCK_ERKENNUNG_CTRL__I_EIN_MAX
	.align	2
	.type	BLOCK_ERKENNUNG_CTRL__I_EIN_MAX, %object
	.size	BLOCK_ERKENNUNG_CTRL__I_EIN_MAX, 4
BLOCK_ERKENNUNG_CTRL__I_EIN_MAX:
	.space	4
	.global	BLOCK_ERKENNUNG_CTRL__I_EIN_MAX_copy
	.align	2
	.type	BLOCK_ERKENNUNG_CTRL__I_EIN_MAX_copy, %object
	.size	BLOCK_ERKENNUNG_CTRL__I_EIN_MAX_copy, 4
BLOCK_ERKENNUNG_CTRL__I_EIN_MAX_copy:
	.space	4
	.global	BLOCK_ERKENNUNG_CTRL__N
	.align	2
	.type	BLOCK_ERKENNUNG_CTRL__N, %object
	.size	BLOCK_ERKENNUNG_CTRL__N, 4
BLOCK_ERKENNUNG_CTRL__N:
	.space	4
	.global	BLOCK_ERKENNUNG_CTRL__N_copy
	.align	2
	.type	BLOCK_ERKENNUNG_CTRL__N_copy, %object
	.size	BLOCK_ERKENNUNG_CTRL__N_copy, 4
BLOCK_ERKENNUNG_CTRL__N_copy:
	.space	4
	.global	BLOCK_ERKENNUNG_CTRL__N_old
	.align	2
	.type	BLOCK_ERKENNUNG_CTRL__N_old, %object
	.size	BLOCK_ERKENNUNG_CTRL__N_old, 4
BLOCK_ERKENNUNG_CTRL__N_old:
	.space	4
	.global	FH_TUERMODUL_CTRL__INREVERS2
	.type	FH_TUERMODUL_CTRL__INREVERS2, %object
	.size	FH_TUERMODUL_CTRL__INREVERS2, 1
FH_TUERMODUL_CTRL__INREVERS2:
	.space	1
	.global	FH_TUERMODUL_CTRL__INREVERS2_copy
	.type	FH_TUERMODUL_CTRL__INREVERS2_copy, %object
	.size	FH_TUERMODUL_CTRL__INREVERS2_copy, 1
FH_TUERMODUL_CTRL__INREVERS2_copy:
	.space	1
	.global	FH_TUERMODUL_CTRL__INREVERS1
	.type	FH_TUERMODUL_CTRL__INREVERS1, %object
	.size	FH_TUERMODUL_CTRL__INREVERS1, 1
FH_TUERMODUL_CTRL__INREVERS1:
	.space	1
	.global	FH_TUERMODUL_CTRL__INREVERS1_copy
	.type	FH_TUERMODUL_CTRL__INREVERS1_copy, %object
	.size	FH_TUERMODUL_CTRL__INREVERS1_copy, 1
FH_TUERMODUL_CTRL__INREVERS1_copy:
	.space	1
	.global	FH_TUERMODUL_CTRL__FT
	.type	FH_TUERMODUL_CTRL__FT, %object
	.size	FH_TUERMODUL_CTRL__FT, 1
FH_TUERMODUL_CTRL__FT:
	.space	1
	.global	FH_TUERMODUL__SFHZ_ZENTRAL
	.type	FH_TUERMODUL__SFHZ_ZENTRAL, %object
	.size	FH_TUERMODUL__SFHZ_ZENTRAL, 1
FH_TUERMODUL__SFHZ_ZENTRAL:
	.space	1
	.global	FH_TUERMODUL__SFHZ_ZENTRAL_old
	.type	FH_TUERMODUL__SFHZ_ZENTRAL_old, %object
	.size	FH_TUERMODUL__SFHZ_ZENTRAL_old, 1
FH_TUERMODUL__SFHZ_ZENTRAL_old:
	.space	1
	.global	FH_TUERMODUL__SFHZ_MEC
	.type	FH_TUERMODUL__SFHZ_MEC, %object
	.size	FH_TUERMODUL__SFHZ_MEC, 1
FH_TUERMODUL__SFHZ_MEC:
	.space	1
	.global	FH_TUERMODUL__SFHZ_MEC_old
	.type	FH_TUERMODUL__SFHZ_MEC_old, %object
	.size	FH_TUERMODUL__SFHZ_MEC_old, 1
FH_TUERMODUL__SFHZ_MEC_old:
	.space	1
	.global	FH_TUERMODUL__SFHA_ZENTRAL
	.type	FH_TUERMODUL__SFHA_ZENTRAL, %object
	.size	FH_TUERMODUL__SFHA_ZENTRAL, 1
FH_TUERMODUL__SFHA_ZENTRAL:
	.space	1
	.global	FH_TUERMODUL__SFHA_ZENTRAL_old
	.type	FH_TUERMODUL__SFHA_ZENTRAL_old, %object
	.size	FH_TUERMODUL__SFHA_ZENTRAL_old, 1
FH_TUERMODUL__SFHA_ZENTRAL_old:
	.space	1
	.global	FH_TUERMODUL__SFHA_MEC
	.type	FH_TUERMODUL__SFHA_MEC, %object
	.size	FH_TUERMODUL__SFHA_MEC, 1
FH_TUERMODUL__SFHA_MEC:
	.space	1
	.global	FH_TUERMODUL__SFHA_MEC_old
	.type	FH_TUERMODUL__SFHA_MEC_old, %object
	.size	FH_TUERMODUL__SFHA_MEC_old, 1
FH_TUERMODUL__SFHA_MEC_old:
	.space	1
	.global	FH_TUERMODUL__KL_50
	.type	FH_TUERMODUL__KL_50, %object
	.size	FH_TUERMODUL__KL_50, 1
FH_TUERMODUL__KL_50:
	.space	1
	.global	FH_TUERMODUL__BLOCK
	.type	FH_TUERMODUL__BLOCK, %object
	.size	FH_TUERMODUL__BLOCK, 1
FH_TUERMODUL__BLOCK:
	.space	1
	.global	FH_TUERMODUL__BLOCK_copy
	.type	FH_TUERMODUL__BLOCK_copy, %object
	.size	FH_TUERMODUL__BLOCK_copy, 1
FH_TUERMODUL__BLOCK_copy:
	.space	1
	.global	FH_TUERMODUL__BLOCK_old
	.type	FH_TUERMODUL__BLOCK_old, %object
	.size	FH_TUERMODUL__BLOCK_old, 1
FH_TUERMODUL__BLOCK_old:
	.space	1
	.global	FH_TUERMODUL__FT
	.type	FH_TUERMODUL__FT, %object
	.size	FH_TUERMODUL__FT, 1
FH_TUERMODUL__FT:
	.space	1
	.global	FH_TUERMODUL__SFHZ
	.type	FH_TUERMODUL__SFHZ, %object
	.size	FH_TUERMODUL__SFHZ, 1
FH_TUERMODUL__SFHZ:
	.space	1
	.global	FH_TUERMODUL__SFHZ_copy
	.type	FH_TUERMODUL__SFHZ_copy, %object
	.size	FH_TUERMODUL__SFHZ_copy, 1
FH_TUERMODUL__SFHZ_copy:
	.space	1
	.global	FH_TUERMODUL__SFHZ_old
	.type	FH_TUERMODUL__SFHZ_old, %object
	.size	FH_TUERMODUL__SFHZ_old, 1
FH_TUERMODUL__SFHZ_old:
	.space	1
	.global	FH_TUERMODUL__SFHA
	.type	FH_TUERMODUL__SFHA, %object
	.size	FH_TUERMODUL__SFHA, 1
FH_TUERMODUL__SFHA:
	.space	1
	.global	FH_TUERMODUL__SFHA_copy
	.type	FH_TUERMODUL__SFHA_copy, %object
	.size	FH_TUERMODUL__SFHA_copy, 1
FH_TUERMODUL__SFHA_copy:
	.space	1
	.global	FH_TUERMODUL__SFHA_old
	.type	FH_TUERMODUL__SFHA_old, %object
	.size	FH_TUERMODUL__SFHA_old, 1
FH_TUERMODUL__SFHA_old:
	.space	1
	.global	FH_TUERMODUL__MFHZ
	.type	FH_TUERMODUL__MFHZ, %object
	.size	FH_TUERMODUL__MFHZ, 1
FH_TUERMODUL__MFHZ:
	.space	1
	.global	FH_TUERMODUL__MFHZ_copy
	.type	FH_TUERMODUL__MFHZ_copy, %object
	.size	FH_TUERMODUL__MFHZ_copy, 1
FH_TUERMODUL__MFHZ_copy:
	.space	1
	.global	FH_TUERMODUL__MFHZ_old
	.type	FH_TUERMODUL__MFHZ_old, %object
	.size	FH_TUERMODUL__MFHZ_old, 1
FH_TUERMODUL__MFHZ_old:
	.space	1
	.global	FH_TUERMODUL__MFHA
	.type	FH_TUERMODUL__MFHA, %object
	.size	FH_TUERMODUL__MFHA, 1
FH_TUERMODUL__MFHA:
	.space	1
	.global	FH_TUERMODUL__MFHA_copy
	.type	FH_TUERMODUL__MFHA_copy, %object
	.size	FH_TUERMODUL__MFHA_copy, 1
FH_TUERMODUL__MFHA_copy:
	.space	1
	.global	FH_TUERMODUL__MFHA_old
	.type	FH_TUERMODUL__MFHA_old, %object
	.size	FH_TUERMODUL__MFHA_old, 1
FH_TUERMODUL__MFHA_old:
	.space	1
	.global	FH_TUERMODUL__EKS_LEISTE_AKTIV
	.type	FH_TUERMODUL__EKS_LEISTE_AKTIV, %object
	.size	FH_TUERMODUL__EKS_LEISTE_AKTIV, 1
FH_TUERMODUL__EKS_LEISTE_AKTIV:
	.space	1
	.global	FH_TUERMODUL__EKS_LEISTE_AKTIV_old
	.type	FH_TUERMODUL__EKS_LEISTE_AKTIV_old, %object
	.size	FH_TUERMODUL__EKS_LEISTE_AKTIV_old, 1
FH_TUERMODUL__EKS_LEISTE_AKTIV_old:
	.space	1
	.global	FH_TUERMODUL__COM_OPEN
	.type	FH_TUERMODUL__COM_OPEN, %object
	.size	FH_TUERMODUL__COM_OPEN, 1
FH_TUERMODUL__COM_OPEN:
	.space	1
	.global	FH_TUERMODUL__COM_CLOSE
	.type	FH_TUERMODUL__COM_CLOSE, %object
	.size	FH_TUERMODUL__COM_CLOSE, 1
FH_TUERMODUL__COM_CLOSE:
	.space	1
	.global	FH_DU__KL_50
	.type	FH_DU__KL_50, %object
	.size	FH_DU__KL_50, 1
FH_DU__KL_50:
	.space	1
	.global	FH_DU__S_FH_FTZU
	.type	FH_DU__S_FH_FTZU, %object
	.size	FH_DU__S_FH_FTZU, 1
FH_DU__S_FH_FTZU:
	.space	1
	.global	FH_DU__S_FH_FTAUF
	.type	FH_DU__S_FH_FTAUF, %object
	.size	FH_DU__S_FH_FTAUF, 1
FH_DU__S_FH_FTAUF:
	.space	1
	.global	FH_DU__FT
	.type	FH_DU__FT, %object
	.size	FH_DU__FT, 1
FH_DU__FT:
	.space	1
	.global	FH_DU__EKS_LEISTE_AKTIV
	.type	FH_DU__EKS_LEISTE_AKTIV, %object
	.size	FH_DU__EKS_LEISTE_AKTIV, 1
FH_DU__EKS_LEISTE_AKTIV:
	.space	1
	.global	FH_DU__EKS_LEISTE_AKTIV_old
	.type	FH_DU__EKS_LEISTE_AKTIV_old, %object
	.size	FH_DU__EKS_LEISTE_AKTIV_old, 1
FH_DU__EKS_LEISTE_AKTIV_old:
	.space	1
	.global	FH_DU__S_FH_TMBFAUFCAN
	.type	FH_DU__S_FH_TMBFAUFCAN, %object
	.size	FH_DU__S_FH_TMBFAUFCAN, 1
FH_DU__S_FH_TMBFAUFCAN:
	.space	1
	.global	FH_DU__S_FH_TMBFAUFCAN_copy
	.type	FH_DU__S_FH_TMBFAUFCAN_copy, %object
	.size	FH_DU__S_FH_TMBFAUFCAN_copy, 1
FH_DU__S_FH_TMBFAUFCAN_copy:
	.space	1
	.global	FH_DU__S_FH_TMBFAUFCAN_old
	.type	FH_DU__S_FH_TMBFAUFCAN_old, %object
	.size	FH_DU__S_FH_TMBFAUFCAN_old, 1
FH_DU__S_FH_TMBFAUFCAN_old:
	.space	1
	.global	FH_DU__S_FH_TMBFZUCAN
	.type	FH_DU__S_FH_TMBFZUCAN, %object
	.size	FH_DU__S_FH_TMBFZUCAN, 1
FH_DU__S_FH_TMBFZUCAN:
	.space	1
	.global	FH_DU__S_FH_TMBFZUCAN_copy
	.type	FH_DU__S_FH_TMBFZUCAN_copy, %object
	.size	FH_DU__S_FH_TMBFZUCAN_copy, 1
FH_DU__S_FH_TMBFZUCAN_copy:
	.space	1
	.global	FH_DU__S_FH_TMBFZUCAN_old
	.type	FH_DU__S_FH_TMBFZUCAN_old, %object
	.size	FH_DU__S_FH_TMBFZUCAN_old, 1
FH_DU__S_FH_TMBFZUCAN_old:
	.space	1
	.global	FH_DU__S_FH_TMBFZUDISC
	.type	FH_DU__S_FH_TMBFZUDISC, %object
	.size	FH_DU__S_FH_TMBFZUDISC, 1
FH_DU__S_FH_TMBFZUDISC:
	.space	1
	.global	FH_DU__S_FH_TMBFZUDISC_old
	.type	FH_DU__S_FH_TMBFZUDISC_old, %object
	.size	FH_DU__S_FH_TMBFZUDISC_old, 1
FH_DU__S_FH_TMBFZUDISC_old:
	.space	1
	.global	FH_DU__S_FH_TMBFAUFDISC
	.type	FH_DU__S_FH_TMBFAUFDISC, %object
	.size	FH_DU__S_FH_TMBFAUFDISC, 1
FH_DU__S_FH_TMBFAUFDISC:
	.space	1
	.global	FH_DU__S_FH_TMBFAUFDISC_old
	.type	FH_DU__S_FH_TMBFAUFDISC_old, %object
	.size	FH_DU__S_FH_TMBFAUFDISC_old, 1
FH_DU__S_FH_TMBFAUFDISC_old:
	.space	1
	.global	FH_DU__S_FH_ZUDISC
	.type	FH_DU__S_FH_ZUDISC, %object
	.size	FH_DU__S_FH_ZUDISC, 1
FH_DU__S_FH_ZUDISC:
	.space	1
	.global	FH_DU__S_FH_AUFDISC
	.type	FH_DU__S_FH_AUFDISC, %object
	.size	FH_DU__S_FH_AUFDISC, 1
FH_DU__S_FH_AUFDISC:
	.space	1
	.global	FH_DU__DOOR_ID
	.type	FH_DU__DOOR_ID, %object
	.size	FH_DU__DOOR_ID, 1
FH_DU__DOOR_ID:
	.space	1
	.global	FH_DU__BLOCK
	.type	FH_DU__BLOCK, %object
	.size	FH_DU__BLOCK, 1
FH_DU__BLOCK:
	.space	1
	.global	FH_DU__BLOCK_copy
	.type	FH_DU__BLOCK_copy, %object
	.size	FH_DU__BLOCK_copy, 1
FH_DU__BLOCK_copy:
	.space	1
	.global	FH_DU__BLOCK_old
	.type	FH_DU__BLOCK_old, %object
	.size	FH_DU__BLOCK_old, 1
FH_DU__BLOCK_old:
	.space	1
	.global	FH_DU__MFHZ
	.type	FH_DU__MFHZ, %object
	.size	FH_DU__MFHZ, 1
FH_DU__MFHZ:
	.space	1
	.global	FH_DU__MFHZ_copy
	.type	FH_DU__MFHZ_copy, %object
	.size	FH_DU__MFHZ_copy, 1
FH_DU__MFHZ_copy:
	.space	1
	.global	FH_DU__MFHZ_old
	.type	FH_DU__MFHZ_old, %object
	.size	FH_DU__MFHZ_old, 1
FH_DU__MFHZ_old:
	.space	1
	.global	FH_DU__MFHA
	.type	FH_DU__MFHA, %object
	.size	FH_DU__MFHA, 1
FH_DU__MFHA:
	.space	1
	.global	FH_DU__MFHA_copy
	.type	FH_DU__MFHA_copy, %object
	.size	FH_DU__MFHA_copy, 1
FH_DU__MFHA_copy:
	.space	1
	.global	FH_DU__MFHA_old
	.type	FH_DU__MFHA_old, %object
	.size	FH_DU__MFHA_old, 1
FH_DU__MFHA_old:
	.space	1
	.global	time
	.align	2
	.type	time, %object
	.size	time, 4
time:
	.space	4
	.global	stable
	.type	stable, %object
	.size	stable, 1
stable:
	.space	1
	.global	step
	.type	step, %object
	.size	step, 1
step:
	.space	1
	.global	NICHT_INITIALISIERT_NICHT_INITIALISIERT_next_state
	.type	NICHT_INITIALISIERT_NICHT_INITIALISIERT_next_state, %object
	.size	NICHT_INITIALISIERT_NICHT_INITIALISIERT_next_state, 1
NICHT_INITIALISIERT_NICHT_INITIALISIERT_next_state:
	.space	1
	.global	ZENTRAL_KINDERSICHERUNG_CTRL_next_state
	.type	ZENTRAL_KINDERSICHERUNG_CTRL_next_state, %object
	.size	ZENTRAL_KINDERSICHERUNG_CTRL_next_state, 1
ZENTRAL_KINDERSICHERUNG_CTRL_next_state:
	.space	1
	.global	MEC_KINDERSICHERUNG_CTRL_next_state
	.type	MEC_KINDERSICHERUNG_CTRL_next_state, %object
	.size	MEC_KINDERSICHERUNG_CTRL_next_state, 1
MEC_KINDERSICHERUNG_CTRL_next_state:
	.space	1
	.global	KINDERSICHERUNG_CTRL_KINDERSICHERUNG_CTRL_next_state
	.type	KINDERSICHERUNG_CTRL_KINDERSICHERUNG_CTRL_next_state, %object
	.size	KINDERSICHERUNG_CTRL_KINDERSICHERUNG_CTRL_next_state, 1
KINDERSICHERUNG_CTRL_KINDERSICHERUNG_CTRL_next_state:
	.space	1
	.global	B_FH_TUERMODUL_CTRL_next_state
	.type	B_FH_TUERMODUL_CTRL_next_state, %object
	.size	B_FH_TUERMODUL_CTRL_next_state, 1
B_FH_TUERMODUL_CTRL_next_state:
	.space	1
	.global	A_FH_TUERMODUL_CTRL_next_state
	.type	A_FH_TUERMODUL_CTRL_next_state, %object
	.size	A_FH_TUERMODUL_CTRL_next_state, 1
A_FH_TUERMODUL_CTRL_next_state:
	.space	1
	.global	WIEDERHOLSPERRE_FH_TUERMODUL_CTRL_next_state
	.type	WIEDERHOLSPERRE_FH_TUERMODUL_CTRL_next_state, %object
	.size	WIEDERHOLSPERRE_FH_TUERMODUL_CTRL_next_state, 1
WIEDERHOLSPERRE_FH_TUERMODUL_CTRL_next_state:
	.space	1
	.global	INITIALISIERT_FH_TUERMODUL_CTRL_next_state
	.type	INITIALISIERT_FH_TUERMODUL_CTRL_next_state, %object
	.size	INITIALISIERT_FH_TUERMODUL_CTRL_next_state, 1
INITIALISIERT_FH_TUERMODUL_CTRL_next_state:
	.space	1
	.global	TIPP_SCHLIESSEN_FH_TUERMODUL_CTRL_next_state
	.type	TIPP_SCHLIESSEN_FH_TUERMODUL_CTRL_next_state, %object
	.size	TIPP_SCHLIESSEN_FH_TUERMODUL_CTRL_next_state, 1
TIPP_SCHLIESSEN_FH_TUERMODUL_CTRL_next_state:
	.space	1
	.global	MANUELL_SCHLIESSEN_FH_TUERMODUL_CTRL_next_state
	.type	MANUELL_SCHLIESSEN_FH_TUERMODUL_CTRL_next_state, %object
	.size	MANUELL_SCHLIESSEN_FH_TUERMODUL_CTRL_next_state, 1
MANUELL_SCHLIESSEN_FH_TUERMODUL_CTRL_next_state:
	.space	1
	.global	OEFFNEN_FH_TUERMODUL_CTRL_next_state
	.type	OEFFNEN_FH_TUERMODUL_CTRL_next_state, %object
	.size	OEFFNEN_FH_TUERMODUL_CTRL_next_state, 1
OEFFNEN_FH_TUERMODUL_CTRL_next_state:
	.space	1
	.global	SCHLIESSEN_FH_TUERMODUL_CTRL_next_state
	.type	SCHLIESSEN_FH_TUERMODUL_CTRL_next_state, %object
	.size	SCHLIESSEN_FH_TUERMODUL_CTRL_next_state, 1
SCHLIESSEN_FH_TUERMODUL_CTRL_next_state:
	.space	1
	.global	FH_STEUERUNG_DUMMY_FH_STEUERUNG_DUMMY_next_state
	.type	FH_STEUERUNG_DUMMY_FH_STEUERUNG_DUMMY_next_state, %object
	.size	FH_STEUERUNG_DUMMY_FH_STEUERUNG_DUMMY_next_state, 1
FH_STEUERUNG_DUMMY_FH_STEUERUNG_DUMMY_next_state:
	.space	1
	.global	EINKLEMMSCHUTZ_CTRL_EINKLEMMSCHUTZ_CTRL_next_state
	.type	EINKLEMMSCHUTZ_CTRL_EINKLEMMSCHUTZ_CTRL_next_state, %object
	.size	EINKLEMMSCHUTZ_CTRL_EINKLEMMSCHUTZ_CTRL_next_state, 1
EINKLEMMSCHUTZ_CTRL_EINKLEMMSCHUTZ_CTRL_next_state:
	.space	1
	.global	BEWEGUNG_BLOCK_ERKENNUNG_CTRL_next_state
	.type	BEWEGUNG_BLOCK_ERKENNUNG_CTRL_next_state, %object
	.size	BEWEGUNG_BLOCK_ERKENNUNG_CTRL_next_state, 1
BEWEGUNG_BLOCK_ERKENNUNG_CTRL_next_state:
	.space	1
	.global	BLOCK_ERKENNUNG_CTRL_BLOCK_ERKENNUNG_CTRL_next_state
	.type	BLOCK_ERKENNUNG_CTRL_BLOCK_ERKENNUNG_CTRL_next_state, %object
	.size	BLOCK_ERKENNUNG_CTRL_BLOCK_ERKENNUNG_CTRL_next_state, 1
BLOCK_ERKENNUNG_CTRL_BLOCK_ERKENNUNG_CTRL_next_state:
	.space	1
	.text
	.align	2
	.global	interface
	.arch armv4t
	.syntax unified
	.arm
	.fpu softvfp
	.type	interface, %function
interface:
	@ Function supports interworking.
	@ args = 0, pretend = 0, frame = 0
	@ frame_needed = 1, uses_anonymous_args = 0
	@ link register save eliminated.
	str	fp, [sp, #-4]!
	add	fp, sp, #0
	ldr	r3, .L13
	ldrb	r3, [r3, #4]	@ zero_extendqisi2
	cmp	r3, #0
	beq	.L2
	ldr	r3, .L13+4
	ldr	r3, [r3]
	ldr	r2, .L13+8
	str	r3, [r2]
.L2:
	ldr	r3, .L13
	ldrb	r3, [r3, #4]	@ zero_extendqisi2
	cmp	r3, #0
	bne	.L3
	ldr	r3, .L13
	ldrb	r3, [r3, #6]	@ zero_extendqisi2
	cmp	r3, #0
	beq	.L4
.L3:
	ldr	r3, .L13+4
	ldr	r3, [r3]
	ldr	r2, .L13+12
	str	r3, [r2]
.L4:
	ldr	r3, .L13+16
	ldr	r3, [r3]
	cmp	r3, #0
	beq	.L5
	ldr	r3, .L13+4
	ldr	r2, [r3]
	ldr	r3, .L13+16
	ldr	r3, [r3]
	cmp	r2, r3
	beq	.L5
	ldr	r3, .L13+20
	mov	r2, #0
	strb	r2, [r3]
	ldr	r3, .L13+16
	mov	r2, #0
	str	r2, [r3]
.L5:
	ldr	r3, .L13+24
	ldr	r3, [r3]
	cmp	r3, #0
	beq	.L6
	ldr	r3, .L13+4
	ldr	r2, [r3]
	ldr	r3, .L13+24
	ldr	r3, [r3]
	cmp	r2, r3
	beq	.L6
	ldr	r3, .L13+28
	mov	r2, #0
	strb	r2, [r3]
	ldr	r3, .L13+24
	mov	r2, #0
	str	r2, [r3]
.L6:
	ldr	r3, .L13+32
	ldr	r3, [r3]
	cmp	r3, #0
	beq	.L7
	ldr	r3, .L13+4
	ldr	r2, [r3]
	ldr	r3, .L13+32
	ldr	r3, [r3]
	cmp	r2, r3
	beq	.L7
	ldr	r3, .L13+28
	mov	r2, #0
	strb	r2, [r3]
	ldr	r3, .L13+32
	mov	r2, #0
	str	r2, [r3]
.L7:
	ldr	r3, .L13+36
	ldr	r3, [r3]
	cmp	r3, #0
	beq	.L8
	ldr	r3, .L13+4
	ldr	r2, [r3]
	ldr	r3, .L13+36
	ldr	r3, [r3]
	cmp	r2, r3
	beq	.L8
	ldr	r3, .L13+36
	mov	r2, #0
	str	r2, [r3]
.L8:
	ldr	r3, .L13+40
	ldr	r3, [r3]
	cmp	r3, #0
	beq	.L9
	ldr	r3, .L13+4
	ldr	r2, [r3]
	ldr	r3, .L13+40
	ldr	r3, [r3]
	cmp	r2, r3
	beq	.L9
	ldr	r3, .L13+40
	mov	r2, #0
	str	r2, [r3]
.L9:
	ldr	r3, .L13
	ldrb	r3, [r3]	@ zero_extendqisi2
	cmp	r3, #0
	bne	.L10
	ldr	r3, .L13+44
	ldr	r2, [r3]
	ldr	r3, .L13+48
	ldr	r3, [r3]
	cmp	r2, r3
	beq	.L12
.L10:
	ldr	r3, .L13+4
	ldr	r3, [r3]
	ldr	r2, .L13+52
	str	r3, [r2]
.L12:
	nop
	add	sp, fp, #0
	@ sp needed
	ldr	fp, [sp], #4
	bx	lr
.L14:
	.align	2
.L13:
	.word	Bitlist
	.word	time
	.word	tm_entered_WIEDERHOLSPERRE_FH_TUERMODUL_CTRL
	.word	tm_entered_WIEDERHOLSPERRE_FH_TUERMODUL_CTRLexited_BEREIT_FH_TUERMODUL_CTRL
	.word	sc_FH_TUERMODUL_CTRL_2375_2
	.word	FH_TUERMODUL__MFHA_copy
	.word	sc_FH_TUERMODUL_CTRL_2352_1
	.word	FH_TUERMODUL__MFHZ_copy
	.word	sc_FH_TUERMODUL_CTRL_2329_1
	.word	sc_FH_TUERMODUL_CTRL_1781_10
	.word	sc_FH_TUERMODUL_CTRL_1739_10
	.word	BLOCK_ERKENNUNG_CTRL__N
	.word	BLOCK_ERKENNUNG_CTRL__N_old
	.word	tm_entered_EINSCHALTSTROM_MESSEN_BLOCK_ERKENNUNG_CTRLch_BLOCK_ERKENNUNG_CTRL__N_copy
	.size	interface, .-interface
	.align	2
	.global	init
	.syntax unified
	.arm
	.fpu softvfp
	.type	init, %function
init:
	@ Function supports interworking.
	@ args = 0, pretend = 0, frame = 0
	@ frame_needed = 1, uses_anonymous_args = 0
	@ link register save eliminated.
	str	fp, [sp, #-4]!
	add	fp, sp, #0
	ldr	r3, .L16
	mov	r2, #0
	str	r2, [r3]
	ldr	r3, .L16+4
	mov	r2, #0
	str	r2, [r3]
	ldr	r3, .L16+8
	mov	r2, #0
	str	r2, [r3]
	ldr	r3, .L16+12
	mov	r2, #0
	strb	r2, [r3]
	ldr	r3, .L16+16
	mov	r2, #0
	strb	r2, [r3]
	ldr	r3, .L16+20
	mov	r2, #0
	strb	r2, [r3]
	ldr	r3, .L16+24
	mov	r2, #0
	strb	r2, [r3]
	ldr	r3, .L16+28
	mov	r2, #0
	strb	r2, [r3]
	ldr	r3, .L16+32
	mov	r2, #0
	strb	r2, [r3]
	ldr	r3, .L16+36
	mov	r2, #0
	strb	r2, [r3]
	ldr	r3, .L16+40
	mov	r2, #0
	strb	r2, [r3]
	ldr	r3, .L16+44
	mov	r2, #0
	strb	r2, [r3]
	ldr	r3, .L16+48
	mov	r2, #0
	strb	r2, [r3]
	ldr	r3, .L16+52
	mov	r2, #0
	strb	r2, [r3]
	ldr	r3, .L16+56
	mov	r2, #0
	strb	r2, [r3]
	ldr	r3, .L16+60
	mov	r2, #0
	strb	r2, [r3]
	ldr	r3, .L16+64
	mov	r2, #0
	strb	r2, [r3]
	ldr	r3, .L16+68
	mov	r2, #0
	strb	r2, [r3]
	ldr	r3, .L16+72
	mov	r2, #0
	strb	r2, [r3]
	nop
	add	sp, fp, #0
	@ sp needed
	ldr	fp, [sp], #4
	bx	lr
.L17:
	.align	2
.L16:
	.word	tm_entered_EINSCHALTSTROM_MESSEN_BLOCK_ERKENNUNG_CTRLch_BLOCK_ERKENNUNG_CTRL__N_copy
	.word	tm_entered_WIEDERHOLSPERRE_FH_TUERMODUL_CTRLexited_BEREIT_FH_TUERMODUL_CTRL
	.word	tm_entered_WIEDERHOLSPERRE_FH_TUERMODUL_CTRL
	.word	NICHT_INITIALISIERT_NICHT_INITIALISIERT_next_state
	.word	ZENTRAL_KINDERSICHERUNG_CTRL_next_state
	.word	MEC_KINDERSICHERUNG_CTRL_next_state
	.word	KINDERSICHERUNG_CTRL_KINDERSICHERUNG_CTRL_next_state
	.word	B_FH_TUERMODUL_CTRL_next_state
	.word	A_FH_TUERMODUL_CTRL_next_state
	.word	WIEDERHOLSPERRE_FH_TUERMODUL_CTRL_next_state
	.word	INITIALISIERT_FH_TUERMODUL_CTRL_next_state
	.word	TIPP_SCHLIESSEN_FH_TUERMODUL_CTRL_next_state
	.word	MANUELL_SCHLIESSEN_FH_TUERMODUL_CTRL_next_state
	.word	OEFFNEN_FH_TUERMODUL_CTRL_next_state
	.word	SCHLIESSEN_FH_TUERMODUL_CTRL_next_state
	.word	FH_STEUERUNG_DUMMY_FH_STEUERUNG_DUMMY_next_state
	.word	EINKLEMMSCHUTZ_CTRL_EINKLEMMSCHUTZ_CTRL_next_state
	.word	BEWEGUNG_BLOCK_ERKENNUNG_CTRL_next_state
	.word	BLOCK_ERKENNUNG_CTRL_BLOCK_ERKENNUNG_CTRL_next_state
	.size	init, .-init
	.align	2
	.global	generic_KINDERSICHERUNG_CTRL
	.syntax unified
	.arm
	.fpu softvfp
	.type	generic_KINDERSICHERUNG_CTRL, %function
generic_KINDERSICHERUNG_CTRL:
	@ Function supports interworking.
	@ args = 0, pretend = 0, frame = 0
	@ frame_needed = 1, uses_anonymous_args = 0
	@ link register save eliminated.
	str	fp, [sp, #-4]!
	add	fp, sp, #0
	ldr	r3, .L49
	ldrb	r3, [r3, #10]	@ zero_extendqisi2
	cmp	r3, #0
	beq	.L44
	ldr	r3, .L49+4
	ldrb	r3, [r3]	@ zero_extendqisi2
	cmp	r3, #3
	beq	.L20
	cmp	r3, #3
	bgt	.L21
	cmp	r3, #1
	beq	.L22
	cmp	r3, #2
	beq	.L23
	b	.L21
.L22:
	ldr	r3, .L49+8
	ldrb	r3, [r3]	@ zero_extendqisi2
	cmp	r3, #0
	bne	.L24
	ldr	r3, .L49+12
	ldrb	r3, [r3]	@ zero_extendqisi2
	cmp	r3, #0
	bne	.L24
	ldr	r3, .L49+16
	mov	r2, #0
	strb	r2, [r3]
	ldr	r3, .L49+20
	mov	r2, #0
	strb	r2, [r3]
	ldr	r3, .L49+24
	mov	r2, #0
	strb	r2, [r3]
	ldr	r3, .L49+4
	mov	r2, #3
	strb	r2, [r3]
	ldr	r3, .L49+28
	mov	r2, #0
	strb	r2, [r3]
	b	.L19
.L24:
	ldr	r3, .L49+28
	ldrb	r3, [r3]	@ zero_extendqisi2
	cmp	r3, #1
	bne	.L25
	ldr	r3, .L49+8
	ldrb	r3, [r3]	@ zero_extendqisi2
	cmp	r3, #0
	beq	.L26
	ldr	r3, .L49+32
	ldrb	r3, [r3]	@ zero_extendqisi2
	cmp	r3, #0
	bne	.L26
	ldr	r3, .L49+16
	mov	r2, #0
	strb	r2, [r3]
	ldr	r3, .L49+24
	mov	r2, #1
	strb	r2, [r3]
	ldr	r3, .L49+28
	mov	r2, #1
	strb	r2, [r3]
	b	.L27
.L26:
	ldr	r3, .L49+12
	ldrb	r3, [r3]	@ zero_extendqisi2
	cmp	r3, #0
	beq	.L28
	ldr	r3, .L49+36
	ldrb	r3, [r3]	@ zero_extendqisi2
	cmp	r3, #0
	bne	.L28
	ldr	r3, .L49+16
	mov	r2, #0
	strb	r2, [r3]
	ldr	r3, .L49+20
	mov	r2, #1
	strb	r2, [r3]
	ldr	r3, .L49+28
	mov	r2, #1
	strb	r2, [r3]
	b	.L27
.L28:
	ldr	r3, .L49+8
	ldrb	r3, [r3]	@ zero_extendqisi2
	cmp	r3, #0
	bne	.L29
	ldr	r3, .L49+32
	ldrb	r3, [r3]	@ zero_extendqisi2
	cmp	r3, #0
	beq	.L29
	ldr	r3, .L49+16
	mov	r2, #0
	strb	r2, [r3]
	ldr	r3, .L49+24
	mov	r2, #0
	strb	r2, [r3]
	ldr	r3, .L49+28
	mov	r2, #1
	strb	r2, [r3]
	b	.L27
.L29:
	ldr	r3, .L49+12
	ldrb	r3, [r3]	@ zero_extendqisi2
	cmp	r3, #0
	bne	.L45
	ldr	r3, .L49+36
	ldrb	r3, [r3]	@ zero_extendqisi2
	cmp	r3, #0
	beq	.L45
	ldr	r3, .L49+16
	mov	r2, #0
	strb	r2, [r3]
	ldr	r3, .L49+20
	mov	r2, #0
	strb	r2, [r3]
	ldr	r3, .L49+28
	mov	r2, #1
	strb	r2, [r3]
	b	.L27
.L25:
	ldr	r3, .L49+16
	mov	r2, #0
	strb	r2, [r3]
	b	.L27
.L45:
	nop
.L27:
	b	.L19
.L23:
	ldr	r3, .L49+40
	ldrb	r3, [r3]	@ zero_extendqisi2
	cmp	r3, #0
	bne	.L31
	ldr	r3, .L49+44
	ldrb	r3, [r3]	@ zero_extendqisi2
	cmp	r3, #0
	bne	.L31
	ldr	r3, .L49+16
	mov	r2, #0
	strb	r2, [r3]
	ldr	r3, .L49+20
	mov	r2, #0
	strb	r2, [r3]
	ldr	r3, .L49+24
	mov	r2, #0
	strb	r2, [r3]
	ldr	r3, .L49+4
	mov	r2, #3
	strb	r2, [r3]
	ldr	r3, .L49+48
	mov	r2, #0
	strb	r2, [r3]
	b	.L19
.L31:
	ldr	r3, .L49+48
	ldrb	r3, [r3]	@ zero_extendqisi2
	cmp	r3, #1
	bne	.L32
	ldr	r3, .L49+40
	ldrb	r3, [r3]	@ zero_extendqisi2
	cmp	r3, #0
	beq	.L33
	ldr	r3, .L49+52
	ldrb	r3, [r3]	@ zero_extendqisi2
	cmp	r3, #0
	bne	.L33
	ldr	r3, .L49+16
	mov	r2, #0
	strb	r2, [r3]
	ldr	r3, .L49+24
	mov	r2, #1
	strb	r2, [r3]
	ldr	r3, .L49+48
	mov	r2, #1
	strb	r2, [r3]
	b	.L34
.L33:
	ldr	r3, .L49+44
	ldrb	r3, [r3]	@ zero_extendqisi2
	cmp	r3, #0
	beq	.L35
	ldr	r3, .L49+56
	ldrb	r3, [r3]	@ zero_extendqisi2
	cmp	r3, #0
	bne	.L35
	ldr	r3, .L49+16
	mov	r2, #0
	strb	r2, [r3]
	ldr	r3, .L49+20
	mov	r2, #1
	strb	r2, [r3]
	ldr	r3, .L49+48
	mov	r2, #1
	strb	r2, [r3]
	b	.L34
.L35:
	ldr	r3, .L49+40
	ldrb	r3, [r3]	@ zero_extendqisi2
	cmp	r3, #0
	bne	.L36
	ldr	r3, .L49+52
	ldrb	r3, [r3]	@ zero_extendqisi2
	cmp	r3, #0
	beq	.L36
	ldr	r3, .L49+16
	mov	r2, #0
	strb	r2, [r3]
	ldr	r3, .L49+24
	mov	r2, #0
	strb	r2, [r3]
	ldr	r3, .L49+48
	mov	r2, #1
	strb	r2, [r3]
	b	.L34
.L36:
	ldr	r3, .L49+44
	ldrb	r3, [r3]	@ zero_extendqisi2
	cmp	r3, #0
	bne	.L46
	ldr	r3, .L49+56
	ldrb	r3, [r3]	@ zero_extendqisi2
	cmp	r3, #0
	beq	.L46
	ldr	r3, .L49+16
	mov	r2, #0
	strb	r2, [r3]
	ldr	r3, .L49+20
	mov	r2, #0
	strb	r2, [r3]
	ldr	r3, .L49+48
	mov	r2, #1
	strb	r2, [r3]
	b	.L34
.L32:
	ldr	r3, .L49+16
	mov	r2, #0
	strb	r2, [r3]
	b	.L34
.L46:
	nop
.L34:
	b	.L19
.L20:
	ldr	r3, .L49+60
	ldrb	r3, [r3]	@ zero_extendqisi2
	cmp	r3, #0
	bne	.L38
	ldr	r3, .L49+44
	ldrb	r3, [r3]	@ zero_extendqisi2
	cmp	r3, #0
	beq	.L38
	ldr	r3, .L49+40
	ldrb	r3, [r3]	@ zero_extendqisi2
	cmp	r3, #0
	beq	.L38
	ldr	r3, .L49+16
	mov	r2, #0
	strb	r2, [r3]
	ldr	r3, .L49+20
	mov	r2, #1
	strb	r2, [r3]
	ldr	r3, .L49+24
	mov	r2, #1
	strb	r2, [r3]
	ldr	r3, .L49+4
	mov	r2, #2
	strb	r2, [r3]
	b	.L19
.L38:
	ldr	r3, .L49+60
	ldrb	r3, [r3]	@ zero_extendqisi2
	cmp	r3, #0
	bne	.L39
	ldr	r3, .L49+44
	ldrb	r3, [r3]	@ zero_extendqisi2
	cmp	r3, #0
	beq	.L39
	ldr	r3, .L49+40
	ldrb	r3, [r3]	@ zero_extendqisi2
	cmp	r3, #0
	bne	.L39
	ldr	r3, .L49+16
	mov	r2, #0
	strb	r2, [r3]
	ldr	r3, .L49+20
	mov	r2, #1
	strb	r2, [r3]
	ldr	r3, .L49+4
	mov	r2, #2
	strb	r2, [r3]
	b	.L19
.L39:
	ldr	r3, .L49+60
	ldrb	r3, [r3]	@ zero_extendqisi2
	cmp	r3, #0
	bne	.L40
	ldr	r3, .L49+44
	ldrb	r3, [r3]	@ zero_extendqisi2
	cmp	r3, #0
	bne	.L40
	ldr	r3, .L49+40
	ldrb	r3, [r3]	@ zero_extendqisi2
	cmp	r3, #0
	beq	.L40
	ldr	r3, .L49+16
	mov	r2, #0
	strb	r2, [r3]
	ldr	r3, .L49+24
	mov	r2, #1
	strb	r2, [r3]
	ldr	r3, .L49+4
	mov	r2, #2
	strb	r2, [r3]
	b	.L19
.L40:
	ldr	r3, .L49+12
	ldrb	r3, [r3]	@ zero_extendqisi2
	cmp	r3, #0
	bne	.L41
	ldr	r3, .L49+8
	ldrb	r3, [r3]	@ zero_extendqisi2
	cmp	r3, #0
	beq	.L41
	ldr	r3, .L49+60
	ldrb	r3, [r3]	@ zero_extendqisi2
	cmp	r3, #0
	bne	.L41
	ldr	r3, .L49+16
	mov	r2, #0
	strb	r2, [r3]
	ldr	r3, .L49+24
	mov	r2, #1
	strb	r2, [r3]
	ldr	r3, .L49+4
	mov	r2, #1
	strb	r2, [r3]
	b	.L19
.L41:
	ldr	r3, .L49+12
	ldrb	r3, [r3]	@ zero_extendqisi2
	cmp	r3, #0
	beq	.L42
	ldr	r3, .L49+8
	ldrb	r3, [r3]	@ zero_extendqisi2
	cmp	r3, #0
	beq	.L42
	ldr	r3, .L49+16
	mov	r2, #0
	strb	r2, [r3]
	ldr	r3, .L49+24
	mov	r2, #1
	strb	r2, [r3]
	ldr	r3, .L49+20
	mov	r2, #1
	strb	r2, [r3]
	ldr	r3, .L49+4
	mov	r2, #1
	strb	r2, [r3]
	b	.L19
.L42:
	ldr	r3, .L49+12
	ldrb	r3, [r3]	@ zero_extendqisi2
	cmp	r3, #0
	beq	.L47
	ldr	r3, .L49+8
	ldrb	r3, [r3]	@ zero_extendqisi2
	cmp	r3, #0
	bne	.L47
	ldr	r3, .L49+60
	ldrb	r3, [r3]	@ zero_extendqisi2
	cmp	r3, #0
	bne	.L47
	ldr	r3, .L49+16
	mov	r2, #0
	strb	r2, [r3]
	ldr	r3, .L49+20
	mov	r2, #1
	strb	r2, [r3]
	ldr	r3, .L49+4
	mov	r2, #1
	strb	r2, [r3]
	b	.L19
.L21:
	ldr	r3, .L49+16
	mov	r2, #0
	strb	r2, [r3]
	ldr	r3, .L49+4
	mov	r2, #3
	strb	r2, [r3]
	b	.L19
.L44:
	nop
	b	.L48
.L47:
	nop
.L19:
.L48:
	nop
	add	sp, fp, #0
	@ sp needed
	ldr	fp, [sp], #4
	bx	lr
.L50:
	.align	2
.L49:
	.word	Bitlist
	.word	KINDERSICHERUNG_CTRL_KINDERSICHERUNG_CTRL_next_state
	.word	FH_TUERMODUL__SFHA_ZENTRAL
	.word	FH_TUERMODUL__SFHZ_ZENTRAL
	.word	stable
	.word	FH_TUERMODUL__SFHZ_copy
	.word	FH_TUERMODUL__SFHA_copy
	.word	ZENTRAL_KINDERSICHERUNG_CTRL_next_state
	.word	FH_TUERMODUL__SFHA_ZENTRAL_old
	.word	FH_TUERMODUL__SFHZ_ZENTRAL_old
	.word	FH_TUERMODUL__SFHA_MEC
	.word	FH_TUERMODUL__SFHZ_MEC
	.word	MEC_KINDERSICHERUNG_CTRL_next_state
	.word	FH_TUERMODUL__SFHA_MEC_old
	.word	FH_TUERMODUL__SFHZ_MEC_old
	.word	FH_TUERMODUL__KL_50
	.size	generic_KINDERSICHERUNG_CTRL, .-generic_KINDERSICHERUNG_CTRL
	.align	2
	.global	generic_FH_TUERMODUL_CTRL
	.syntax unified
	.arm
	.fpu softvfp
	.type	generic_FH_TUERMODUL_CTRL, %function
generic_FH_TUERMODUL_CTRL:
	@ Function supports interworking.
	@ args = 0, pretend = 0, frame = 0
	@ frame_needed = 1, uses_anonymous_args = 0
	@ link register save eliminated.
	str	fp, [sp, #-4]!
	add	fp, sp, #0
	ldr	r3, .L138
	ldrb	r3, [r3, #13]	@ zero_extendqisi2
	cmp	r3, #0
	bne	.L52
	ldr	r3, .L138
	ldrb	r3, [r3, #15]	@ zero_extendqisi2
	cmp	r3, #0
	beq	.L52
	ldr	r3, .L138
	ldrb	r3, [r3, #14]	@ zero_extendqisi2
	cmp	r3, #0
	bne	.L52
	ldr	r3, .L138
	mov	r2, #0
	strb	r2, [r3, #4]
	ldr	r3, .L138
	mov	r2, #0
	strb	r2, [r3, #6]
.L52:
	ldr	r3, .L138
	ldrb	r3, [r3, #13]	@ zero_extendqisi2
	cmp	r3, #0
	beq	.L125
	ldr	r3, .L138
	ldrb	r3, [r3, #10]	@ zero_extendqisi2
	cmp	r3, #0
	bne	.L54
	ldr	r3, .L138+4
	mov	r2, #3
	strb	r2, [r3]
.L54:
	ldr	r3, .L138
	mov	r2, #0
	strb	r2, [r3, #11]
	ldr	r3, .L138
	ldrb	r3, [r3, #19]	@ zero_extendqisi2
	cmp	r3, #0
	bne	.L55
	ldr	r3, .L138
	mov	r2, #0
	strb	r2, [r3]
	ldr	r3, .L138+8
	mov	r2, #1
	strb	r2, [r3]
.L55:
	ldr	r3, .L138
	mov	r2, #0
	strb	r2, [r3, #20]
	ldr	r3, .L138
	mov	r2, #1
	strb	r2, [r3, #11]
	ldr	r3, .L138
	mov	r2, #1
	strb	r2, [r3, #20]
	ldr	r3, .L138+12
	ldrb	r3, [r3]	@ zero_extendqisi2
	cmp	r3, #3
	beq	.L56
	cmp	r3, #3
	bgt	.L57
	cmp	r3, #1
	beq	.L58
	cmp	r3, #2
	beq	.L59
	b	.L57
.L58:
	ldr	r3, .L138+16
	ldr	r3, [r3]
	cmp	r3, #59
	bne	.L126
	ldr	r3, .L138+20
	ldr	r3, [r3]
	cmp	r3, #59
	beq	.L126
	ldr	r3, .L138+24
	mov	r2, #0
	strb	r2, [r3]
	ldr	r3, .L138+12
	mov	r2, #3
	strb	r2, [r3]
	ldr	r3, .L138+28
	mov	r2, #3
	strb	r2, [r3]
	b	.L61
.L59:
	ldr	r3, .L138+32
	ldrb	r3, [r3]	@ zero_extendqisi2
	cmp	r3, #0
	beq	.L62
	ldr	r3, .L138+36
	ldrb	r3, [r3]	@ zero_extendqisi2
	cmp	r3, #0
	bne	.L62
	ldr	r3, .L138+40
	ldrb	r3, [r3]	@ zero_extendqisi2
	cmp	r3, #0
	beq	.L62
	ldr	r3, .L138+24
	mov	r2, #0
	strb	r2, [r3]
	ldr	r3, .L138+44
	mov	r2, #0
	strb	r2, [r3]
	ldr	r3, .L138+48
	ldr	r3, [r3]
	ldr	r2, .L138+52
	str	r3, [r2]
	ldr	r3, .L138+12
	mov	r2, #3
	strb	r2, [r3]
	ldr	r3, .L138+28
	mov	r2, #3
	strb	r2, [r3]
	b	.L61
.L62:
	ldr	r3, .L138+56
	ldrb	r3, [r3]	@ zero_extendqisi2
	cmp	r3, #3
	beq	.L63
	cmp	r3, #3
	bgt	.L64
	cmp	r3, #1
	beq	.L65
	cmp	r3, #2
	beq	.L66
	b	.L64
.L65:
	ldr	r3, .L138+60
	ldrb	r3, [r3]	@ zero_extendqisi2
	cmp	r3, #0
	bne	.L127
	ldr	r3, .L138+24
	mov	r2, #0
	strb	r2, [r3]
	ldr	r3, .L138+44
	mov	r2, #0
	strb	r2, [r3]
	ldr	r3, .L138+56
	mov	r2, #3
	strb	r2, [r3]
	b	.L68
.L66:
	ldr	r3, .L138+64
	ldrb	r3, [r3]	@ zero_extendqisi2
	cmp	r3, #0
	bne	.L128
	ldr	r3, .L138+24
	mov	r2, #0
	strb	r2, [r3]
	ldr	r3, .L138+68
	mov	r2, #0
	strb	r2, [r3]
	ldr	r3, .L138+56
	mov	r2, #3
	strb	r2, [r3]
	b	.L68
.L63:
	ldr	r3, .L138+64
	ldrb	r3, [r3]	@ zero_extendqisi2
	cmp	r3, #0
	beq	.L70
	ldr	r3, .L138+24
	mov	r2, #0
	strb	r2, [r3]
	ldr	r3, .L138+68
	mov	r2, #1
	strb	r2, [r3]
	ldr	r3, .L138+56
	mov	r2, #2
	strb	r2, [r3]
	b	.L68
.L70:
	ldr	r3, .L138+60
	ldrb	r3, [r3]	@ zero_extendqisi2
	cmp	r3, #0
	beq	.L129
	ldr	r3, .L138+24
	mov	r2, #0
	strb	r2, [r3]
	ldr	r3, .L138+44
	mov	r2, #1
	strb	r2, [r3]
	ldr	r3, .L138+56
	mov	r2, #1
	strb	r2, [r3]
	b	.L68
.L64:
	ldr	r3, .L138+24
	mov	r2, #0
	strb	r2, [r3]
	ldr	r3, .L138+56
	mov	r2, #3
	strb	r2, [r3]
	b	.L68
.L127:
	nop
	b	.L61
.L128:
	nop
	b	.L61
.L129:
	nop
.L68:
	b	.L61
.L56:
	ldr	r3, .L138+16
	ldr	r3, [r3]
	cmp	r3, #60
	ble	.L72
	ldr	r3, .L138+20
	ldr	r3, [r3]
	cmp	r3, #60
	bgt	.L72
	ldr	r3, .L138+72
	ldrb	r3, [r3]	@ zero_extendqisi2
	cmp	r3, #0
	bne	.L72
	ldr	r3, .L138+76
	ldrb	r3, [r3]	@ zero_extendqisi2
	cmp	r3, #0
	bne	.L72
	ldr	r3, .L138+24
	mov	r2, #0
	strb	r2, [r3]
	ldr	r3, .L138+44
	mov	r2, #0
	strb	r2, [r3]
	ldr	r3, .L138+68
	mov	r2, #0
	strb	r2, [r3]
	ldr	r3, .L138+12
	mov	r2, #1
	strb	r2, [r3]
	b	.L61
.L72:
	ldr	r3, .L138+32
	ldrb	r3, [r3]	@ zero_extendqisi2
	cmp	r3, #0
	beq	.L73
	ldr	r3, .L138+36
	ldrb	r3, [r3]	@ zero_extendqisi2
	cmp	r3, #0
	bne	.L73
	ldr	r3, .L138+80
	ldrb	r3, [r3]	@ zero_extendqisi2
	cmp	r3, #0
	beq	.L73
	ldr	r3, .L138+24
	mov	r2, #0
	strb	r2, [r3]
	ldr	r3, .L138+68
	mov	r2, #0
	strb	r2, [r3]
	ldr	r3, .L138+48
	ldr	r3, [r3]
	ldr	r2, .L138+84
	str	r3, [r2]
	ldr	r3, .L138+12
	mov	r2, #2
	strb	r2, [r3]
	ldr	r3, .L138+56
	mov	r2, #3
	strb	r2, [r3]
	b	.L61
.L73:
	ldr	r3, .L138+32
	ldrb	r3, [r3]	@ zero_extendqisi2
	cmp	r3, #0
	beq	.L74
	ldr	r3, .L138+36
	ldrb	r3, [r3]	@ zero_extendqisi2
	cmp	r3, #0
	bne	.L74
	ldr	r3, .L138+40
	ldrb	r3, [r3]	@ zero_extendqisi2
	cmp	r3, #0
	beq	.L74
	ldr	r3, .L138+24
	mov	r2, #0
	strb	r2, [r3]
	ldr	r3, .L138+44
	mov	r2, #0
	strb	r2, [r3]
	ldr	r3, .L138+48
	ldr	r3, [r3]
	ldr	r2, .L138+88
	str	r3, [r2]
	ldr	r3, .L138+12
	mov	r2, #2
	strb	r2, [r3]
	ldr	r3, .L138+56
	mov	r2, #3
	strb	r2, [r3]
	b	.L61
.L74:
	ldr	r3, .L138+28
	ldrb	r3, [r3]	@ zero_extendqisi2
	cmp	r3, #3
	beq	.L75
	cmp	r3, #3
	bgt	.L76
	cmp	r3, #1
	beq	.L77
	cmp	r3, #2
	beq	.L78
	b	.L76
.L77:
	ldr	r3, .L138+92
	ldr	r3, [r3]
	cmp	r3, #404
	ble	.L79
	ldr	r3, .L138+24
	mov	r2, #0
	strb	r2, [r3]
	ldr	r3, .L138+68
	mov	r2, #0
	strb	r2, [r3]
	ldr	r3, .L138+28
	mov	r2, #3
	strb	r2, [r3]
	b	.L80
.L79:
	ldr	r3, .L138+96
	ldrb	r3, [r3]	@ zero_extendqisi2
	cmp	r3, #1
	beq	.L81
	cmp	r3, #2
	beq	.L82
	b	.L121
.L81:
	ldr	r3, .L138+60
	ldrb	r3, [r3]	@ zero_extendqisi2
	cmp	r3, #0
	beq	.L84
	ldr	r3, .L138+100
	ldrb	r3, [r3]	@ zero_extendqisi2
	cmp	r3, #0
	beq	.L85
.L84:
	ldr	r3, .L138+64
	ldrb	r3, [r3]	@ zero_extendqisi2
	cmp	r3, #0
	beq	.L130
	ldr	r3, .L138+104
	ldrb	r3, [r3]	@ zero_extendqisi2
	cmp	r3, #0
	bne	.L130
.L85:
	ldr	r3, .L138+24
	mov	r2, #0
	strb	r2, [r3]
	ldr	r3, .L138+68
	mov	r2, #0
	strb	r2, [r3]
	ldr	r3, .L138+28
	mov	r2, #3
	strb	r2, [r3]
	ldr	r3, .L138+96
	mov	r2, #0
	strb	r2, [r3]
	b	.L87
.L82:
	ldr	r3, .L138+60
	ldrb	r3, [r3]	@ zero_extendqisi2
	cmp	r3, #0
	beq	.L88
	ldr	r3, .L138+100
	ldrb	r3, [r3]	@ zero_extendqisi2
	cmp	r3, #0
	bne	.L88
	ldr	r3, .L138+24
	mov	r2, #0
	strb	r2, [r3]
	ldr	r3, .L138+96
	mov	r2, #1
	strb	r2, [r3]
	b	.L87
.L88:
	ldr	r3, .L138+64
	ldrb	r3, [r3]	@ zero_extendqisi2
	cmp	r3, #0
	bne	.L131
	ldr	r3, .L138+104
	ldrb	r3, [r3]	@ zero_extendqisi2
	cmp	r3, #0
	beq	.L131
	ldr	r3, .L138+24
	mov	r2, #0
	strb	r2, [r3]
	ldr	r3, .L138+68
	mov	r2, #0
	strb	r2, [r3]
	ldr	r3, .L138+28
	mov	r2, #3
	strb	r2, [r3]
	ldr	r3, .L138+96
	mov	r2, #0
	strb	r2, [r3]
	b	.L87
.L121:
	ldr	r3, .L138+24
	mov	r2, #0
	strb	r2, [r3]
	ldr	r3, .L138+96
	mov	r2, #2
	strb	r2, [r3]
	b	.L87
.L130:
	nop
	b	.L80
.L131:
	nop
.L87:
	b	.L80
.L78:
	ldr	r3, .L138+92
	ldr	r3, [r3]
	cmp	r3, #0
	bgt	.L90
	ldr	r3, .L138+24
	mov	r2, #0
	strb	r2, [r3]
	ldr	r3, .L138+44
	mov	r2, #0
	strb	r2, [r3]
	ldr	r3, .L138+28
	mov	r2, #3
	strb	r2, [r3]
	b	.L80
.L90:
	ldr	r3, .L138+108
	ldrb	r3, [r3]	@ zero_extendqisi2
	cmp	r3, #1
	beq	.L91
	cmp	r3, #2
	beq	.L92
	b	.L122
.L91:
	ldr	r3, .L138+64
	ldrb	r3, [r3]	@ zero_extendqisi2
	cmp	r3, #0
	beq	.L94
	ldr	r3, .L138+104
	ldrb	r3, [r3]	@ zero_extendqisi2
	cmp	r3, #0
	beq	.L95
.L94:
	ldr	r3, .L138+60
	ldrb	r3, [r3]	@ zero_extendqisi2
	cmp	r3, #0
	beq	.L96
	ldr	r3, .L138+100
	ldrb	r3, [r3]	@ zero_extendqisi2
	cmp	r3, #0
	bne	.L96
.L95:
	ldr	r3, .L138+24
	mov	r2, #0
	strb	r2, [r3]
	ldr	r3, .L138+44
	mov	r2, #0
	strb	r2, [r3]
	ldr	r3, .L138+28
	mov	r2, #3
	strb	r2, [r3]
	b	.L97
.L96:
	ldr	r3, .L138+112
	ldrb	r3, [r3]	@ zero_extendqisi2
	cmp	r3, #1
	beq	.L98
	cmp	r3, #2
	beq	.L99
	b	.L123
.L98:
	ldr	r3, .L138
	mov	r2, #0
	strb	r2, [r3, #23]
	ldr	r3, .L138
	ldrb	r3, [r3, #22]	@ zero_extendqisi2
	cmp	r3, #0
	beq	.L132
	ldr	r3, .L138+24
	mov	r2, #0
	strb	r2, [r3]
	ldr	r3, .L138+44
	mov	r2, #1
	strb	r2, [r3]
	ldr	r3, .L138+116
	mov	r2, #0
	strb	r2, [r3]
	ldr	r3, .L138+112
	mov	r2, #2
	strb	r2, [r3]
	ldr	r3, .L138+68
	mov	r2, #0
	strb	r2, [r3]
	ldr	r3, .L138
	mov	r2, #1
	strb	r2, [r3, #17]
	b	.L102
.L99:
	ldr	r3, .L138
	ldrb	r3, [r3, #24]	@ zero_extendqisi2
	cmp	r3, #0
	beq	.L133
	ldr	r3, .L138+24
	mov	r2, #0
	strb	r2, [r3]
	ldr	r3, .L138+116
	mov	r2, #1
	strb	r2, [r3]
	ldr	r3, .L138
	mov	r2, #1
	strb	r2, [r3, #23]
	ldr	r3, .L138+112
	mov	r2, #1
	strb	r2, [r3]
	ldr	r3, .L138
	mov	r2, #0
	strb	r2, [r3, #17]
	ldr	r3, .L138+44
	mov	r2, #0
	strb	r2, [r3]
	ldr	r3, .L138+48
	ldr	r3, [r3]
	ldr	r2, .L138+120
	str	r3, [r2]
	ldr	r3, .L138+68
	mov	r2, #1
	strb	r2, [r3]
	b	.L102
.L123:
	ldr	r3, .L138+24
	mov	r2, #0
	strb	r2, [r3]
	ldr	r3, .L138+112
	mov	r2, #2
	strb	r2, [r3]
	ldr	r3, .L138
	mov	r2, #1
	strb	r2, [r3, #17]
	b	.L102
.L132:
	nop
	b	.L97
.L133:
	nop
.L102:
	b	.L97
.L92:
	ldr	r3, .L138+60
	ldrb	r3, [r3]	@ zero_extendqisi2
	cmp	r3, #0
	bne	.L104
	ldr	r3, .L138+100
	ldrb	r3, [r3]	@ zero_extendqisi2
	cmp	r3, #0
	beq	.L104
	ldr	r3, .L138+24
	mov	r2, #0
	strb	r2, [r3]
	ldr	r3, .L138+44
	mov	r2, #0
	strb	r2, [r3]
	ldr	r3, .L138+28
	mov	r2, #3
	strb	r2, [r3]
	b	.L97
.L104:
	ldr	r3, .L138+124
	ldrb	r3, [r3]	@ zero_extendqisi2
	cmp	r3, #1
	beq	.L105
	cmp	r3, #2
	beq	.L106
	b	.L124
.L105:
	ldr	r3, .L138
	mov	r2, #0
	strb	r2, [r3, #23]
	ldr	r3, .L138
	ldrb	r3, [r3, #22]	@ zero_extendqisi2
	cmp	r3, #0
	beq	.L134
	ldr	r3, .L138+24
	mov	r2, #0
	strb	r2, [r3]
	ldr	r3, .L138+128
	mov	r2, #0
	strb	r2, [r3]
	ldr	r3, .L138+124
	mov	r2, #2
	strb	r2, [r3]
	ldr	r3, .L138+68
	mov	r2, #0
	strb	r2, [r3]
	ldr	r3, .L138
	mov	r2, #1
	strb	r2, [r3, #17]
	ldr	r3, .L138+44
	mov	r2, #1
	strb	r2, [r3]
	b	.L109
.L106:
	ldr	r3, .L138
	ldrb	r3, [r3, #24]	@ zero_extendqisi2
	cmp	r3, #0
	beq	.L110
	ldr	r3, .L138+24
	mov	r2, #0
	strb	r2, [r3]
	ldr	r3, .L138+44
	mov	r2, #0
	strb	r2, [r3]
	ldr	r3, .L138+128
	mov	r2, #1
	strb	r2, [r3]
	ldr	r3, .L138
	mov	r2, #1
	strb	r2, [r3, #23]
	ldr	r3, .L138+124
	mov	r2, #1
	strb	r2, [r3]
	ldr	r3, .L138
	mov	r2, #0
	strb	r2, [r3, #17]
	ldr	r3, .L138+48
	ldr	r3, [r3]
	ldr	r2, .L138+132
	str	r3, [r2]
	ldr	r3, .L138+68
	mov	r2, #1
	strb	r2, [r3]
	b	.L109
.L110:
	ldr	r3, .L138+64
	ldrb	r3, [r3]	@ zero_extendqisi2
	cmp	r3, #0
	beq	.L135
	ldr	r3, .L138+104
	ldrb	r3, [r3]	@ zero_extendqisi2
	cmp	r3, #0
	bne	.L135
	ldr	r3, .L138+24
	mov	r2, #0
	strb	r2, [r3]
	ldr	r3, .L138+108
	mov	r2, #1
	strb	r2, [r3]
	ldr	r3, .L138+124
	mov	r2, #0
	strb	r2, [r3]
	b	.L109
.L124:
	ldr	r3, .L138+24
	mov	r2, #0
	strb	r2, [r3]
	ldr	r3, .L138+124
	mov	r2, #2
	strb	r2, [r3]
	ldr	r3, .L138
	mov	r2, #1
	strb	r2, [r3, #17]
	ldr	r3, .L138+44
	mov	r2, #1
	strb	r2, [r3]
	b	.L109
.L134:
	nop
	b	.L97
.L135:
	nop
.L109:
	b	.L97
.L122:
	ldr	r3, .L138+24
	mov	r2, #0
	strb	r2, [r3]
	ldr	r3, .L138+108
	mov	r2, #2
	strb	r2, [r3]
	ldr	r3, .L138+124
	mov	r2, #2
	strb	r2, [r3]
	ldr	r3, .L138
	mov	r2, #1
	strb	r2, [r3, #17]
	ldr	r3, .L138+44
	mov	r2, #1
	strb	r2, [r3]
	nop
.L97:
	b	.L80
.L75:
	ldr	r3, .L138+60
	ldrb	r3, [r3]	@ zero_extendqisi2
	cmp	r3, #0
	beq	.L112
	ldr	r3, .L138+100
	ldrb	r3, [r3]	@ zero_extendqisi2
	cmp	r3, #0
	bne	.L112
	ldr	r3, .L138+92
	ldr	r3, [r3]
	cmp	r3, #0
	ble	.L112
	ldr	r3, .L138+24
	mov	r2, #0
	strb	r2, [r3]
	ldr	r3, .L138+28
	mov	r2, #2
	strb	r2, [r3]
	ldr	r3, .L138+108
	mov	r2, #2
	strb	r2, [r3]
	ldr	r3, .L138+124
	mov	r2, #2
	strb	r2, [r3]
	ldr	r3, .L138
	mov	r2, #1
	strb	r2, [r3, #17]
	ldr	r3, .L138+44
	mov	r2, #1
	strb	r2, [r3]
	b	.L80
.L112:
	ldr	r3, .L138+64
	ldrb	r3, [r3]	@ zero_extendqisi2
	cmp	r3, #0
	beq	.L136
	ldr	r3, .L138+104
	ldrb	r3, [r3]	@ zero_extendqisi2
	cmp	r3, #0
	bne	.L136
	ldr	r3, .L138+92
	ldr	r3, [r3]
	cmp	r3, #404
	bgt	.L136
	ldr	r3, .L138+24
	mov	r2, #0
	strb	r2, [r3]
	ldr	r3, .L138+68
	mov	r2, #1
	strb	r2, [r3]
	ldr	r3, .L138+28
	mov	r2, #1
	strb	r2, [r3]
	ldr	r3, .L138+96
	mov	r2, #2
	strb	r2, [r3]
	b	.L80
.L76:
	ldr	r3, .L138+24
	mov	r2, #0
	strb	r2, [r3]
	ldr	r3, .L138+28
	mov	r2, #3
	strb	r2, [r3]
	b	.L80
.L136:
	nop
.L80:
	b	.L61
.L57:
	ldr	r3, .L138+24
	mov	r2, #0
	strb	r2, [r3]
	ldr	r3, .L138+12
	mov	r2, #2
	strb	r2, [r3]
	b	.L61
.L126:
	nop
.L61:
	ldr	r3, .L138+136
	ldrb	r3, [r3]	@ zero_extendqisi2
	cmp	r3, #1
	bne	.L114
	ldr	r3, .L138
	mov	r2, #0
	strb	r2, [r3, #5]
	ldr	r3, .L138+140
	ldrb	r3, [r3]	@ zero_extendqisi2
	cmp	r3, #1
	bne	.L115
	ldr	r3, .L138+144
	ldr	r3, [r3]
	cmp	r3, #0
	beq	.L115
	ldr	r3, .L138+48
	ldr	r2, [r3]
	ldr	r3, .L138+144
	ldr	r3, [r3]
	sub	r3, r2, r3
	cmp	r3, #1
	bne	.L115
	ldr	r3, .L138+40
	ldrb	r3, [r3]	@ zero_extendqisi2
	cmp	r3, #0
	bne	.L116
	ldr	r3, .L138+80
	ldrb	r3, [r3]	@ zero_extendqisi2
	cmp	r3, #0
	beq	.L115
.L116:
	ldr	r3, .L138+24
	mov	r2, #0
	strb	r2, [r3]
	ldr	r3, .L138+16
	ldr	r3, [r3]
	add	r3, r3, #1
	ldr	r2, .L138+16
	str	r3, [r2]
	ldr	r3, .L138+136
	mov	r2, #1
	strb	r2, [r3]
	ldr	r3, .L138
	mov	r2, #1
	strb	r2, [r3, #5]
	ldr	r3, .L138+148
	mov	r2, #1
	strb	r2, [r3]
	b	.L117
.L115:
	ldr	r3, .L138+148
	ldrb	r3, [r3]	@ zero_extendqisi2
	cmp	r3, #1
	bne	.L118
	ldr	r3, .L138+140
	ldrb	r3, [r3]	@ zero_extendqisi2
	cmp	r3, #1
	bne	.L137
	ldr	r3, .L138+152
	ldr	r3, [r3]
	cmp	r3, #0
	beq	.L137
	ldr	r3, .L138+48
	ldr	r2, [r3]
	ldr	r3, .L138+152
	ldr	r3, [r3]
	sub	r3, r2, r3
	cmp	r3, #3
	bne	.L137
	ldr	r3, .L138+40
	ldrb	r3, [r3]	@ zero_extendqisi2
	cmp	r3, #0
	bne	.L137
	ldr	r3, .L138+80
	ldrb	r3, [r3]	@ zero_extendqisi2
	cmp	r3, #0
	bne	.L137
	ldr	r3, .L138+16
	ldr	r3, [r3]
	cmp	r3, #0
	ble	.L137
	ldr	r3, .L138+24
	mov	r2, #0
	strb	r2, [r3]
	ldr	r3, .L138+16
	ldr	r3, [r3]
	sub	r3, r3, #1
	ldr	r2, .L138+16
	str	r3, [r2]
	ldr	r3, .L138+148
	mov	r2, #1
	strb	r2, [r3]
	b	.L120
.L118:
	ldr	r3, .L138+24
	mov	r2, #0
	strb	r2, [r3]
	ldr	r3, .L138
	mov	r2, #1
	strb	r2, [r3, #5]
	ldr	r3, .L138+148
	mov	r2, #1
	strb	r2, [r3]
	b	.L120
.L137:
	nop
.L120:
	b	.L117
.L114:
	ldr	r3, .L138+24
	mov	r2, #0
	strb	r2, [r3]
	ldr	r3, .L138+16
	mov	r2, #0
	str	r2, [r3]
	ldr	r3, .L138+136
	mov	r2, #1
	strb	r2, [r3]
	ldr	r3, .L138
	mov	r2, #1
	strb	r2, [r3, #5]
	ldr	r3, .L138+148
	mov	r2, #1
	strb	r2, [r3]
	nop
.L117:
	ldr	r3, .L138
	ldrb	r2, [r3, #4]	@ zero_extendqisi2
	ldr	r3, .L138
	strb	r2, [r3, #5]
	ldr	r3, .L138
	ldrb	r2, [r3, #6]	@ zero_extendqisi2
	ldr	r3, .L138
	strb	r2, [r3, #7]
.L125:
	nop
	add	sp, fp, #0
	@ sp needed
	ldr	fp, [sp], #4
	bx	lr
.L139:
	.align	2
.L138:
	.word	Bitlist
	.word	KINDERSICHERUNG_CTRL_KINDERSICHERUNG_CTRL_next_state
	.word	BLOCK_ERKENNUNG_CTRL_BLOCK_ERKENNUNG_CTRL_next_state
	.word	B_FH_TUERMODUL_CTRL_next_state
	.word	FH_TUERMODUL_CTRL__N
	.word	FH_TUERMODUL_CTRL__N_old
	.word	stable
	.word	INITIALISIERT_FH_TUERMODUL_CTRL_next_state
	.word	FH_TUERMODUL__BLOCK
	.word	FH_TUERMODUL__BLOCK_old
	.word	FH_TUERMODUL__MFHZ
	.word	FH_TUERMODUL__MFHZ_copy
	.word	time
	.word	sc_FH_TUERMODUL_CTRL_2329_1
	.word	NICHT_INITIALISIERT_NICHT_INITIALISIERT_next_state
	.word	FH_TUERMODUL__SFHZ
	.word	FH_TUERMODUL__SFHA
	.word	FH_TUERMODUL__MFHA_copy
	.word	FH_TUERMODUL_CTRL__INREVERS1
	.word	FH_TUERMODUL_CTRL__INREVERS2
	.word	FH_TUERMODUL__MFHA
	.word	sc_FH_TUERMODUL_CTRL_2375_2
	.word	sc_FH_TUERMODUL_CTRL_2352_1
	.word	FH_TUERMODUL__POSITION
	.word	OEFFNEN_FH_TUERMODUL_CTRL_next_state
	.word	FH_TUERMODUL__SFHZ_old
	.word	FH_TUERMODUL__SFHA_old
	.word	SCHLIESSEN_FH_TUERMODUL_CTRL_next_state
	.word	TIPP_SCHLIESSEN_FH_TUERMODUL_CTRL_next_state
	.word	FH_TUERMODUL_CTRL__INREVERS2_copy
	.word	sc_FH_TUERMODUL_CTRL_1781_10
	.word	MANUELL_SCHLIESSEN_FH_TUERMODUL_CTRL_next_state
	.word	FH_TUERMODUL_CTRL__INREVERS1_copy
	.word	sc_FH_TUERMODUL_CTRL_1739_10
	.word	A_FH_TUERMODUL_CTRL_next_state
	.word	step
	.word	tm_entered_WIEDERHOLSPERRE_FH_TUERMODUL_CTRLexited_BEREIT_FH_TUERMODUL_CTRL
	.word	WIEDERHOLSPERRE_FH_TUERMODUL_CTRL_next_state
	.word	tm_entered_WIEDERHOLSPERRE_FH_TUERMODUL_CTRL
	.size	generic_FH_TUERMODUL_CTRL, .-generic_FH_TUERMODUL_CTRL
	.align	2
	.global	generic_EINKLEMMSCHUTZ_CTRL
	.syntax unified
	.arm
	.fpu softvfp
	.type	generic_EINKLEMMSCHUTZ_CTRL, %function
generic_EINKLEMMSCHUTZ_CTRL:
	@ Function supports interworking.
	@ args = 0, pretend = 0, frame = 0
	@ frame_needed = 1, uses_anonymous_args = 0
	@ link register save eliminated.
	str	fp, [sp, #-4]!
	add	fp, sp, #0
	ldr	r3, .L153
	ldrb	r3, [r3, #16]	@ zero_extendqisi2
	cmp	r3, #0
	beq	.L149
	ldr	r3, .L153+4
	ldrb	r3, [r3]	@ zero_extendqisi2
	cmp	r3, #1
	beq	.L142
	cmp	r3, #2
	beq	.L143
	b	.L148
.L142:
	ldr	r3, .L153+8
	ldrb	r3, [r3]	@ zero_extendqisi2
	cmp	r3, #0
	beq	.L150
	ldr	r3, .L153+12
	ldrb	r3, [r3]	@ zero_extendqisi2
	cmp	r3, #0
	bne	.L150
	ldr	r3, .L153+16
	ldrb	r3, [r3]	@ zero_extendqisi2
	cmp	r3, #0
	beq	.L146
	ldr	r3, .L153+20
	ldrb	r3, [r3]	@ zero_extendqisi2
	cmp	r3, #0
	bne	.L150
.L146:
	ldr	r3, .L153+24
	mov	r2, #0
	strb	r2, [r3]
	ldr	r3, .L153
	mov	r2, #1
	strb	r2, [r3, #24]
	ldr	r3, .L153+4
	mov	r2, #2
	strb	r2, [r3]
	b	.L141
.L143:
	ldr	r3, .L153
	mov	r2, #0
	strb	r2, [r3, #24]
	ldr	r3, .L153+8
	ldrb	r3, [r3]	@ zero_extendqisi2
	cmp	r3, #0
	bne	.L151
	ldr	r3, .L153+12
	ldrb	r3, [r3]	@ zero_extendqisi2
	cmp	r3, #0
	beq	.L151
	ldr	r3, .L153+24
	mov	r2, #0
	strb	r2, [r3]
	ldr	r3, .L153+4
	mov	r2, #1
	strb	r2, [r3]
	b	.L141
.L148:
	ldr	r3, .L153+24
	mov	r2, #0
	strb	r2, [r3]
	ldr	r3, .L153+4
	mov	r2, #1
	strb	r2, [r3]
	b	.L141
.L149:
	nop
	b	.L152
.L150:
	nop
	b	.L152
.L151:
	nop
.L141:
.L152:
	nop
	add	sp, fp, #0
	@ sp needed
	ldr	fp, [sp], #4
	bx	lr
.L154:
	.align	2
.L153:
	.word	Bitlist
	.word	EINKLEMMSCHUTZ_CTRL_EINKLEMMSCHUTZ_CTRL_next_state
	.word	FH_TUERMODUL__EKS_LEISTE_AKTIV
	.word	FH_TUERMODUL__EKS_LEISTE_AKTIV_old
	.word	FH_TUERMODUL__SFHZ
	.word	FH_TUERMODUL__SFHA
	.word	stable
	.size	generic_EINKLEMMSCHUTZ_CTRL, .-generic_EINKLEMMSCHUTZ_CTRL
	.align	2
	.global	generic_BLOCK_ERKENNUNG_CTRL
	.syntax unified
	.arm
	.fpu softvfp
	.type	generic_BLOCK_ERKENNUNG_CTRL, %function
generic_BLOCK_ERKENNUNG_CTRL:
	@ Function supports interworking.
	@ args = 0, pretend = 0, frame = 0
	@ frame_needed = 1, uses_anonymous_args = 0
	@ link register save eliminated.
	str	fp, [sp, #-4]!
	add	fp, sp, #0
	ldr	r3, .L179
	ldrb	r3, [r3, #19]	@ zero_extendqisi2
	cmp	r3, #0
	bne	.L156
	ldr	r3, .L179
	ldrb	r3, [r3, #21]	@ zero_extendqisi2
	cmp	r3, #0
	beq	.L156
	ldr	r3, .L179
	ldrb	r3, [r3, #20]	@ zero_extendqisi2
	cmp	r3, #0
	bne	.L156
	ldr	r3, .L179
	mov	r2, #0
	strb	r2, [r3]
.L156:
	ldr	r3, .L179
	ldrb	r3, [r3, #19]	@ zero_extendqisi2
	cmp	r3, #0
	beq	.L173
	ldr	r3, .L179+4
	ldrb	r3, [r3]	@ zero_extendqisi2
	cmp	r3, #1
	beq	.L158
	cmp	r3, #2
	beq	.L159
	b	.L172
.L158:
	ldr	r3, .L179+8
	ldr	r2, [r3]
	ldr	r3, .L179+12
	ldr	r3, [r3]
	cmp	r2, r3
	beq	.L174
	ldr	r3, .L179+8
	ldr	r3, [r3]
	cmp	r3, #0
	ble	.L174
	ldr	r3, .L179+16
	mov	r2, #0
	strb	r2, [r3]
	ldr	r3, .L179+20
	mov	r2, #0
	strb	r2, [r3]
	ldr	r3, .L179+4
	mov	r2, #2
	strb	r2, [r3]
	ldr	r3, .L179+24
	mov	r2, #0
	str	r2, [r3]
	ldr	r3, .L179+28
	mov	r2, #2
	str	r2, [r3]
	ldr	r3, .L179+32
	mov	r2, #3
	strb	r2, [r3]
	ldr	r3, .L179
	mov	r2, #1
	strb	r2, [r3]
	b	.L157
.L159:
	ldr	r3, .L179+36
	ldrb	r3, [r3]	@ zero_extendqisi2
	cmp	r3, #0
	bne	.L162
	ldr	r3, .L179+40
	ldrb	r3, [r3]	@ zero_extendqisi2
	cmp	r3, #0
	bne	.L163
.L162:
	ldr	r3, .L179+44
	ldrb	r3, [r3]	@ zero_extendqisi2
	cmp	r3, #0
	bne	.L164
	ldr	r3, .L179+48
	ldrb	r3, [r3]	@ zero_extendqisi2
	cmp	r3, #0
	beq	.L164
.L163:
	ldr	r3, .L179+16
	mov	r2, #0
	strb	r2, [r3]
	ldr	r3, .L179+4
	mov	r2, #1
	strb	r2, [r3]
	ldr	r3, .L179+32
	mov	r2, #0
	strb	r2, [r3]
	b	.L157
.L164:
	ldr	r3, .L179+32
	ldrb	r3, [r3]	@ zero_extendqisi2
	cmp	r3, #3
	beq	.L165
	cmp	r3, #3
	bgt	.L166
	cmp	r3, #1
	beq	.L175
	cmp	r3, #2
	bne	.L166
	ldr	r3, .L179+28
	ldr	r3, [r3]
	sub	r2, r3, #1
	ldr	r3, .L179+8
	ldr	r3, [r3]
	cmp	r2, r3
	bgt	.L176
	ldr	r3, .L179+16
	mov	r2, #0
	strb	r2, [r3]
	ldr	r3, .L179+20
	mov	r2, #1
	strb	r2, [r3]
	ldr	r3, .L179+32
	mov	r2, #1
	strb	r2, [r3]
	b	.L169
.L165:
	ldr	r3, .L179
	mov	r2, #0
	strb	r2, [r3]
	ldr	r3, .L179+24
	ldr	r3, [r3]
	cmp	r3, #11
	bne	.L177
	ldr	r3, .L179+52
	ldr	r3, [r3]
	cmp	r3, #11
	beq	.L177
	ldr	r3, .L179+16
	mov	r2, #0
	strb	r2, [r3]
	ldr	r3, .L179+32
	mov	r2, #2
	strb	r2, [r3]
	b	.L169
.L166:
	ldr	r3, .L179+16
	mov	r2, #0
	strb	r2, [r3]
	ldr	r3, .L179+24
	mov	r2, #0
	str	r2, [r3]
	ldr	r3, .L179+28
	mov	r2, #2
	str	r2, [r3]
	ldr	r3, .L179+32
	mov	r2, #3
	strb	r2, [r3]
	ldr	r3, .L179
	mov	r2, #1
	strb	r2, [r3]
	b	.L169
.L175:
	nop
	b	.L157
.L176:
	nop
	b	.L157
.L177:
	nop
.L169:
	b	.L157
.L172:
	ldr	r3, .L179+16
	mov	r2, #0
	strb	r2, [r3]
	ldr	r3, .L179+4
	mov	r2, #1
	strb	r2, [r3]
	b	.L157
.L173:
	nop
	b	.L178
.L174:
	nop
.L157:
.L178:
	nop
	add	sp, fp, #0
	@ sp needed
	ldr	fp, [sp], #4
	bx	lr
.L180:
	.align	2
.L179:
	.word	Bitlist
	.word	BLOCK_ERKENNUNG_CTRL_BLOCK_ERKENNUNG_CTRL_next_state
	.word	FH_TUERMODUL__I_EIN
	.word	FH_TUERMODUL__I_EIN_old
	.word	stable
	.word	FH_TUERMODUL__BLOCK_copy
	.word	BLOCK_ERKENNUNG_CTRL__N
	.word	BLOCK_ERKENNUNG_CTRL__I_EIN_MAX
	.word	BEWEGUNG_BLOCK_ERKENNUNG_CTRL_next_state
	.word	FH_TUERMODUL__MFHA
	.word	FH_TUERMODUL__MFHA_old
	.word	FH_TUERMODUL__MFHZ
	.word	FH_TUERMODUL__MFHZ_old
	.word	BLOCK_ERKENNUNG_CTRL__N_old
	.size	generic_BLOCK_ERKENNUNG_CTRL, .-generic_BLOCK_ERKENNUNG_CTRL
	.align	2
	.global	FH_DU
	.syntax unified
	.arm
	.fpu softvfp
	.type	FH_DU, %function
FH_DU:
	@ Function supports interworking.
	@ args = 0, pretend = 0, frame = 0
	@ frame_needed = 1, uses_anonymous_args = 0
	push	{fp, lr}
	add	fp, sp, #4
	ldr	r3, .L204
	mov	r2, #1
	str	r2, [r3]
	ldr	r3, .L204+4
	mov	r2, #0
	strb	r2, [r3]
	ldr	r3, .L204+8
	mov	r2, #0
	strb	r2, [r3]
	b	.L182
.L200:
	ldr	r3, .L204+4
	mov	r2, #1
	strb	r2, [r3]
	ldr	r3, .L204+8
	ldrb	r3, [r3]	@ zero_extendqisi2
	add	r3, r3, #1
	and	r2, r3, #255
	ldr	r3, .L204+8
	strb	r2, [r3]
	ldr	r3, .L204+12
	ldrb	r3, [r3]	@ zero_extendqisi2
	cmp	r3, #3
	beq	.L183
	cmp	r3, #3
	bgt	.L184
	cmp	r3, #1
	beq	.L185
	cmp	r3, #2
	beq	.L186
	b	.L184
.L185:
	ldr	r3, .L204+16
	ldrb	r3, [r3]	@ zero_extendqisi2
	cmp	r3, #0
	bne	.L201
	ldr	r3, .L204+20
	ldrb	r3, [r3]	@ zero_extendqisi2
	cmp	r3, #0
	beq	.L201
	ldr	r3, .L204+4
	mov	r2, #0
	strb	r2, [r3]
	ldr	r3, .L204+24
	mov	r2, #0
	str	r2, [r3]
	ldr	r3, .L204+12
	mov	r2, #2
	strb	r2, [r3]
	b	.L188
.L186:
	ldr	r3, .L204+16
	ldrb	r3, [r3]	@ zero_extendqisi2
	cmp	r3, #0
	beq	.L189
	ldr	r3, .L204+20
	ldrb	r3, [r3]	@ zero_extendqisi2
	cmp	r3, #0
	bne	.L189
	ldr	r3, .L204+4
	mov	r2, #0
	strb	r2, [r3]
	ldr	r3, .L204+24
	mvn	r2, #99
	str	r2, [r3]
	ldr	r3, .L204+12
	mov	r2, #1
	strb	r2, [r3]
	b	.L188
.L189:
	ldr	r3, .L204+28
	ldrb	r3, [r3]	@ zero_extendqisi2
	cmp	r3, #0
	beq	.L202
	ldr	r3, .L204+32
	ldrb	r3, [r3]	@ zero_extendqisi2
	cmp	r3, #0
	bne	.L202
	ldr	r3, .L204+4
	mov	r2, #0
	strb	r2, [r3]
	ldr	r3, .L204+24
	mov	r2, #100
	str	r2, [r3]
	ldr	r3, .L204+12
	mov	r2, #3
	strb	r2, [r3]
	b	.L188
.L183:
	ldr	r3, .L204+28
	ldrb	r3, [r3]	@ zero_extendqisi2
	cmp	r3, #0
	bne	.L203
	ldr	r3, .L204+32
	ldrb	r3, [r3]	@ zero_extendqisi2
	cmp	r3, #0
	beq	.L203
	ldr	r3, .L204+4
	mov	r2, #0
	strb	r2, [r3]
	ldr	r3, .L204+24
	mov	r2, #0
	str	r2, [r3]
	ldr	r3, .L204+12
	mov	r2, #2
	strb	r2, [r3]
	b	.L188
.L184:
	ldr	r3, .L204+4
	mov	r2, #0
	strb	r2, [r3]
	ldr	r3, .L204+24
	mov	r2, #0
	str	r2, [r3]
	ldr	r3, .L204+12
	mov	r2, #2
	strb	r2, [r3]
	b	.L188
.L201:
	nop
	b	.L188
.L202:
	nop
	b	.L188
.L203:
	nop
.L188:
	ldr	r3, .L204+36
	ldrb	r3, [r3, #10]	@ zero_extendqisi2
	cmp	r3, #0
	bne	.L192
	ldr	r3, .L204+40
	mov	r2, #3
	strb	r2, [r3]
.L192:
	ldr	r3, .L204+36
	mov	r2, #0
	strb	r2, [r3, #11]
	ldr	r3, .L204+36
	ldrb	r3, [r3, #16]	@ zero_extendqisi2
	cmp	r3, #0
	bne	.L193
	ldr	r3, .L204+44
	mov	r2, #1
	strb	r2, [r3]
.L193:
	ldr	r3, .L204+36
	mov	r2, #0
	strb	r2, [r3, #17]
	ldr	r3, .L204+36
	ldrb	r3, [r3, #19]	@ zero_extendqisi2
	cmp	r3, #0
	bne	.L194
	ldr	r3, .L204+36
	mov	r2, #0
	strb	r2, [r3]
	ldr	r3, .L204+48
	mov	r2, #1
	strb	r2, [r3]
.L194:
	ldr	r3, .L204+36
	mov	r2, #0
	strb	r2, [r3, #20]
	ldr	r3, .L204+36
	ldrb	r3, [r3, #13]	@ zero_extendqisi2
	cmp	r3, #0
	bne	.L195
	ldr	r3, .L204+36
	mov	r2, #0
	strb	r2, [r3, #4]
	ldr	r3, .L204+36
	mov	r2, #0
	strb	r2, [r3, #6]
	ldr	r3, .L204+52
	mov	r2, #2
	strb	r2, [r3]
	ldr	r3, .L204+56
	mov	r2, #0
	str	r2, [r3]
	ldr	r3, .L204+60
	mov	r2, #1
	strb	r2, [r3]
	ldr	r3, .L204+36
	mov	r2, #1
	strb	r2, [r3, #5]
	ldr	r3, .L204+64
	mov	r2, #1
	strb	r2, [r3]
.L195:
	ldr	r3, .L204+36
	mov	r2, #0
	strb	r2, [r3, #14]
	ldr	r3, .L204+36
	mov	r2, #1
	strb	r2, [r3, #11]
	ldr	r3, .L204+36
	mov	r2, #1
	strb	r2, [r3, #17]
	ldr	r3, .L204+36
	mov	r2, #1
	strb	r2, [r3, #20]
	ldr	r3, .L204+36
	mov	r2, #1
	strb	r2, [r3, #14]
	ldr	r3, .L204+68
	ldrb	r2, [r3]	@ zero_extendqisi2
	ldr	r3, .L204+72
	ldrb	r3, [r3]	@ zero_extendqisi2
	cmp	r2, r3
	beq	.L196
	ldr	r3, .L204+76
	ldrb	r3, [r3]	@ zero_extendqisi2
	cmp	r3, #0
	bne	.L196
	ldr	r3, .L204+68
	ldrb	r2, [r3]	@ zero_extendqisi2
	ldr	r3, .L204+80
	strb	r2, [r3]
.L196:
	ldr	r3, .L204+84
	ldrb	r2, [r3]	@ zero_extendqisi2
	ldr	r3, .L204+88
	ldrb	r3, [r3]	@ zero_extendqisi2
	cmp	r2, r3
	beq	.L197
	ldr	r3, .L204+76
	ldrb	r3, [r3]	@ zero_extendqisi2
	cmp	r3, #0
	beq	.L197
	ldr	r3, .L204+84
	ldrb	r2, [r3]	@ zero_extendqisi2
	ldr	r3, .L204+68
	strb	r2, [r3]
.L197:
	ldr	r3, .L204+92
	ldrb	r2, [r3]	@ zero_extendqisi2
	ldr	r3, .L204+96
	ldrb	r3, [r3]	@ zero_extendqisi2
	cmp	r2, r3
	beq	.L198
	ldr	r3, .L204+76
	ldrb	r3, [r3]	@ zero_extendqisi2
	cmp	r3, #0
	bne	.L198
	ldr	r3, .L204+92
	ldrb	r2, [r3]	@ zero_extendqisi2
	ldr	r3, .L204+100
	strb	r2, [r3]
.L198:
	ldr	r3, .L204+104
	ldrb	r2, [r3]	@ zero_extendqisi2
	ldr	r3, .L204+108
	ldrb	r3, [r3]	@ zero_extendqisi2
	cmp	r2, r3
	beq	.L199
	ldr	r3, .L204+76
	ldrb	r3, [r3]	@ zero_extendqisi2
	cmp	r3, #0
	beq	.L199
	ldr	r3, .L204+104
	ldrb	r2, [r3]	@ zero_extendqisi2
	ldr	r3, .L204+92
	strb	r2, [r3]
.L199:
	ldr	r3, .L204+36
	ldrb	r2, [r3, #12]	@ zero_extendqisi2
	ldr	r3, .L204+36
	strb	r2, [r3, #10]
	ldr	r3, .L204+36
	ldrb	r2, [r3, #15]	@ zero_extendqisi2
	ldr	r3, .L204+36
	strb	r2, [r3, #13]
	ldr	r3, .L204+36
	ldrb	r2, [r3, #18]	@ zero_extendqisi2
	ldr	r3, .L204+36
	strb	r2, [r3, #16]
	ldr	r3, .L204+36
	ldrb	r2, [r3, #21]	@ zero_extendqisi2
	ldr	r3, .L204+36
	strb	r2, [r3, #19]
	ldr	r3, .L204+112
	ldrb	r2, [r3]	@ zero_extendqisi2
	ldr	r3, .L204+116
	strb	r2, [r3]
	ldr	r3, .L204+100
	ldrb	r2, [r3]	@ zero_extendqisi2
	ldr	r3, .L204+120
	strb	r2, [r3]
	ldr	r3, .L204+124
	ldrb	r2, [r3]	@ zero_extendqisi2
	ldr	r3, .L204+128
	strb	r2, [r3]
	ldr	r3, .L204+80
	ldrb	r2, [r3]	@ zero_extendqisi2
	ldr	r3, .L204+132
	strb	r2, [r3]
	bl	generic_KINDERSICHERUNG_CTRL
	ldr	r3, .L204+136
	ldrb	r2, [r3]	@ zero_extendqisi2
	ldr	r3, .L204+28
	strb	r2, [r3]
	ldr	r3, .L204+140
	ldrb	r2, [r3]	@ zero_extendqisi2
	ldr	r3, .L204+16
	strb	r2, [r3]
	ldr	r3, .L204+144
	ldr	r3, [r3]
	ldr	r2, .L204+148
	str	r3, [r2]
	ldr	r3, .L204+152
	ldrb	r2, [r3]	@ zero_extendqisi2
	ldr	r3, .L204+156
	strb	r2, [r3]
	ldr	r3, .L204+160
	ldr	r3, [r3]
	ldr	r2, .L204+164
	str	r3, [r2]
	ldr	r3, .L204+168
	ldrb	r2, [r3]	@ zero_extendqisi2
	ldr	r3, .L204+172
	strb	r2, [r3]
	ldr	r3, .L204+116
	ldrb	r2, [r3]	@ zero_extendqisi2
	ldr	r3, .L204+112
	strb	r2, [r3]
	ldr	r3, .L204+120
	ldrb	r2, [r3]	@ zero_extendqisi2
	ldr	r3, .L204+100
	strb	r2, [r3]
	ldr	r3, .L204+128
	ldrb	r2, [r3]	@ zero_extendqisi2
	ldr	r3, .L204+124
	strb	r2, [r3]
	ldr	r3, .L204+132
	ldrb	r2, [r3]	@ zero_extendqisi2
	ldr	r3, .L204+80
	strb	r2, [r3]
	ldr	r3, .L204+176
	ldrb	r2, [r3]	@ zero_extendqisi2
	ldr	r3, .L204+180
	strb	r2, [r3]
	ldr	r3, .L204+184
	ldrb	r2, [r3]	@ zero_extendqisi2
	ldr	r3, .L204+188
	strb	r2, [r3]
	ldr	r3, .L204+112
	ldrb	r2, [r3]	@ zero_extendqisi2
	ldr	r3, .L204+116
	strb	r2, [r3]
	ldr	r3, .L204+100
	ldrb	r2, [r3]	@ zero_extendqisi2
	ldr	r3, .L204+120
	strb	r2, [r3]
	ldr	r3, .L204+124
	ldrb	r2, [r3]	@ zero_extendqisi2
	ldr	r3, .L204+128
	strb	r2, [r3]
	ldr	r3, .L204+80
	ldrb	r2, [r3]	@ zero_extendqisi2
	ldr	r3, .L204+132
	strb	r2, [r3]
	bl	generic_FH_TUERMODUL_CTRL
	ldr	r3, .L204+136
	ldrb	r2, [r3]	@ zero_extendqisi2
	ldr	r3, .L204+28
	strb	r2, [r3]
	ldr	r3, .L204+140
	ldrb	r2, [r3]	@ zero_extendqisi2
	ldr	r3, .L204+16
	strb	r2, [r3]
	ldr	r3, .L204+144
	ldr	r3, [r3]
	ldr	r2, .L204+148
	str	r3, [r2]
	ldr	r3, .L204+152
	ldrb	r2, [r3]	@ zero_extendqisi2
	ldr	r3, .L204+156
	strb	r2, [r3]
	ldr	r3, .L204+160
	ldr	r3, [r3]
	ldr	r2, .L204+164
	str	r3, [r2]
	ldr	r3, .L204+168
	ldrb	r2, [r3]	@ zero_extendqisi2
	ldr	r3, .L204+172
	strb	r2, [r3]
	ldr	r3, .L204+116
	ldrb	r2, [r3]	@ zero_extendqisi2
	ldr	r3, .L204+112
	strb	r2, [r3]
	ldr	r3, .L204+120
	ldrb	r2, [r3]	@ zero_extendqisi2
	ldr	r3, .L204+100
	strb	r2, [r3]
	ldr	r3, .L204+128
	ldrb	r2, [r3]	@ zero_extendqisi2
	ldr	r3, .L204+124
	strb	r2, [r3]
	ldr	r3, .L204+132
	ldrb	r2, [r3]	@ zero_extendqisi2
	ldr	r3, .L204+80
	strb	r2, [r3]
	ldr	r3, .L204+176
	ldrb	r2, [r3]	@ zero_extendqisi2
	ldr	r3, .L204+180
	strb	r2, [r3]
	ldr	r3, .L204+184
	ldrb	r2, [r3]	@ zero_extendqisi2
	ldr	r3, .L204+188
	strb	r2, [r3]
	ldr	r3, .L204+112
	ldrb	r2, [r3]	@ zero_extendqisi2
	ldr	r3, .L204+116
	strb	r2, [r3]
	ldr	r3, .L204+100
	ldrb	r2, [r3]	@ zero_extendqisi2
	ldr	r3, .L204+120
	strb	r2, [r3]
	ldr	r3, .L204+124
	ldrb	r2, [r3]	@ zero_extendqisi2
	ldr	r3, .L204+128
	strb	r2, [r3]
	ldr	r3, .L204+80
	ldrb	r2, [r3]	@ zero_extendqisi2
	ldr	r3, .L204+132
	strb	r2, [r3]
	bl	generic_EINKLEMMSCHUTZ_CTRL
	ldr	r3, .L204+136
	ldrb	r2, [r3]	@ zero_extendqisi2
	ldr	r3, .L204+28
	strb	r2, [r3]
	ldr	r3, .L204+140
	ldrb	r2, [r3]	@ zero_extendqisi2
	ldr	r3, .L204+16
	strb	r2, [r3]
	ldr	r3, .L204+144
	ldr	r3, [r3]
	ldr	r2, .L204+148
	str	r3, [r2]
	ldr	r3, .L204+152
	ldrb	r2, [r3]	@ zero_extendqisi2
	ldr	r3, .L204+156
	strb	r2, [r3]
	ldr	r3, .L204+160
	ldr	r3, [r3]
	ldr	r2, .L204+164
	str	r3, [r2]
	ldr	r3, .L204+168
	ldrb	r2, [r3]	@ zero_extendqisi2
	ldr	r3, .L204+172
	strb	r2, [r3]
	ldr	r3, .L204+116
	ldrb	r2, [r3]	@ zero_extendqisi2
	ldr	r3, .L204+112
	strb	r2, [r3]
	ldr	r3, .L204+120
	ldrb	r2, [r3]	@ zero_extendqisi2
	ldr	r3, .L204+100
	strb	r2, [r3]
	ldr	r3, .L204+128
	ldrb	r2, [r3]	@ zero_extendqisi2
	ldr	r3, .L204+124
	strb	r2, [r3]
	ldr	r3, .L204+132
	ldrb	r2, [r3]	@ zero_extendqisi2
	ldr	r3, .L204+80
	strb	r2, [r3]
	ldr	r3, .L204+176
	ldrb	r2, [r3]	@ zero_extendqisi2
	ldr	r3, .L204+180
	strb	r2, [r3]
	ldr	r3, .L204+184
	ldrb	r2, [r3]	@ zero_extendqisi2
	ldr	r3, .L204+188
	strb	r2, [r3]
	ldr	r3, .L204+112
	ldrb	r2, [r3]	@ zero_extendqisi2
	ldr	r3, .L204+116
	strb	r2, [r3]
	ldr	r3, .L204+100
	ldrb	r2, [r3]	@ zero_extendqisi2
	ldr	r3, .L204+120
	strb	r2, [r3]
	ldr	r3, .L204+124
	ldrb	r2, [r3]	@ zero_extendqisi2
	ldr	r3, .L204+128
	strb	r2, [r3]
	ldr	r3, .L204+80
	ldrb	r2, [r3]	@ zero_extendqisi2
	ldr	r3, .L204+132
	strb	r2, [r3]
	bl	generic_BLOCK_ERKENNUNG_CTRL
	ldr	r3, .L204+136
	ldrb	r2, [r3]	@ zero_extendqisi2
	ldr	r3, .L204+28
	strb	r2, [r3]
	ldr	r3, .L204+140
	ldrb	r2, [r3]	@ zero_extendqisi2
	ldr	r3, .L204+16
	strb	r2, [r3]
	ldr	r3, .L204+144
	ldr	r3, [r3]
	ldr	r2, .L204+148
	str	r3, [r2]
	ldr	r3, .L204+152
	ldrb	r2, [r3]	@ zero_extendqisi2
	ldr	r3, .L204+156
	strb	r2, [r3]
	ldr	r3, .L204+160
	ldr	r3, [r3]
	ldr	r2, .L204+164
	str	r3, [r2]
	ldr	r3, .L204+168
	ldrb	r2, [r3]	@ zero_extendqisi2
	ldr	r3, .L204+172
	strb	r2, [r3]
	ldr	r3, .L204+116
	ldrb	r2, [r3]	@ zero_extendqisi2
	ldr	r3, .L204+112
	strb	r2, [r3]
	ldr	r3, .L204+120
	ldrb	r2, [r3]	@ zero_extendqisi2
	ldr	r3, .L204+100
	strb	r2, [r3]
	ldr	r3, .L204+128
	ldrb	r2, [r3]	@ zero_extendqisi2
	ldr	r3, .L204+124
	strb	r2, [r3]
	ldr	r3, .L204+132
	ldrb	r2, [r3]	@ zero_extendqisi2
	ldr	r3, .L204+80
	strb	r2, [r3]
	ldr	r3, .L204+176
	ldrb	r2, [r3]	@ zero_extendqisi2
	ldr	r3, .L204+180
	strb	r2, [r3]
	ldr	r3, .L204+184
	ldrb	r2, [r3]	@ zero_extendqisi2
	ldr	r3, .L204+188
	strb	r2, [r3]
	ldr	r3, .L204+36
	ldrb	r2, [r3, #10]	@ zero_extendqisi2
	ldr	r3, .L204+36
	strb	r2, [r3, #11]
	ldr	r3, .L204+36
	ldrb	r2, [r3, #13]	@ zero_extendqisi2
	ldr	r3, .L204+36
	strb	r2, [r3, #14]
	ldr	r3, .L204+36
	ldrb	r2, [r3, #16]	@ zero_extendqisi2
	ldr	r3, .L204+36
	strb	r2, [r3, #17]
	ldr	r3, .L204+36
	ldrb	r2, [r3, #19]	@ zero_extendqisi2
	ldr	r3, .L204+36
	strb	r2, [r3, #20]
	ldr	r3, .L204+56
	ldr	r3, [r3]
	ldr	r2, .L204+192
	str	r3, [r2]
	ldr	r3, .L204+144
	ldr	r3, [r3]
	ldr	r2, .L204+196
	str	r3, [r2]
	ldr	r3, .L204+200
	ldr	r3, [r3]
	ldr	r2, .L204+24
	str	r3, [r2]
	ldr	r3, .L204+148
	ldr	r3, [r3]
	ldr	r2, .L204+204
	str	r3, [r2]
	ldr	r3, .L204+208
	ldr	r3, [r3]
	ldr	r2, .L204+212
	str	r3, [r2]
	ldr	r3, .L204+132
	ldrb	r2, [r3]	@ zero_extendqisi2
	ldr	r3, .L204+216
	strb	r2, [r3]
	ldr	r3, .L204+128
	ldrb	r2, [r3]	@ zero_extendqisi2
	ldr	r3, .L204+220
	strb	r2, [r3]
	ldr	r3, .L204+120
	ldrb	r2, [r3]	@ zero_extendqisi2
	ldr	r3, .L204+224
	strb	r2, [r3]
	ldr	r3, .L204+116
	ldrb	r2, [r3]	@ zero_extendqisi2
	ldr	r3, .L204+228
	strb	r2, [r3]
	ldr	r3, .L204+232
	ldrb	r2, [r3]	@ zero_extendqisi2
	ldr	r3, .L204+184
	strb	r2, [r3]
	ldr	r3, .L204+184
	ldrb	r2, [r3]	@ zero_extendqisi2
	ldr	r3, .L204+236
	strb	r2, [r3]
	ldr	r3, .L204+240
	ldrb	r2, [r3]	@ zero_extendqisi2
	ldr	r3, .L204+244
	strb	r2, [r3]
	ldr	r3, .L204+244
	ldrb	r2, [r3]	@ zero_extendqisi2
	ldr	r3, .L204+248
	strb	r2, [r3]
	ldr	r3, .L204+252
	ldrb	r2, [r3]	@ zero_extendqisi2
	ldr	r3, .L204+256
	strb	r2, [r3]
	ldr	r3, .L204+256
	ldrb	r2, [r3]	@ zero_extendqisi2
	ldr	r3, .L204+260
	strb	r2, [r3]
	ldr	r3, .L204+264
	ldrb	r2, [r3]	@ zero_extendqisi2
	ldr	r3, .L204+140
	strb	r2, [r3]
	ldr	r3, .L204+140
	ldrb	r2, [r3]	@ zero_extendqisi2
	ldr	r3, .L204+268
	strb	r2, [r3]
	ldr	r3, .L204+272
	ldrb	r2, [r3]	@ zero_extendqisi2
	ldr	r3, .L204+136
	strb	r2, [r3]
	ldr	r3, .L204+136
	ldrb	r2, [r3]	@ zero_extendqisi2
	ldr	r3, .L204+276
	strb	r2, [r3]
	ldr	r3, .L204+152
	ldrb	r2, [r3]	@ zero_extendqisi2
	ldr	r3, .L204+280
	strb	r2, [r3]
	ldr	r3, .L204+156
	ldrb	r2, [r3]	@ zero_extendqisi2
	ldr	r3, .L204+284
	strb	r2, [r3]
	ldr	r3, .L204+92
	ldrb	r2, [r3]	@ zero_extendqisi2
	ldr	r3, .L204+96
	strb	r2, [r3]
	ldr	r3, .L204+68
	ldrb	r2, [r3]	@ zero_extendqisi2
	ldr	r3, .L204+72
	strb	r2, [r3]
	ldr	r3, .L204+84
	ldrb	r2, [r3]	@ zero_extendqisi2
	ldr	r3, .L204+88
	strb	r2, [r3]
	ldr	r3, .L204+104
	ldrb	r2, [r3]	@ zero_extendqisi2
	ldr	r3, .L204+108
	strb	r2, [r3]
	ldr	r3, .L204+288
	ldrb	r2, [r3]	@ zero_extendqisi2
	ldr	r3, .L204+188
	strb	r2, [r3]
	ldr	r3, .L204+188
	ldrb	r2, [r3]	@ zero_extendqisi2
	ldr	r3, .L204+292
	strb	r2, [r3]
	ldr	r3, .L204+296
	ldrb	r2, [r3]	@ zero_extendqisi2
	ldr	r3, .L204+16
	strb	r2, [r3]
	ldr	r3, .L204+16
	ldrb	r2, [r3]	@ zero_extendqisi2
	ldr	r3, .L204+20
	strb	r2, [r3]
	ldr	r3, .L204+300
	ldrb	r2, [r3]	@ zero_extendqisi2
	ldr	r3, .L204+28
	strb	r2, [r3]
	ldr	r3, .L204+28
	ldrb	r2, [r3]	@ zero_extendqisi2
	ldr	r3, .L204+32
	strb	r2, [r3]
.L182:
	ldr	r3, .L204+4
	ldrb	r3, [r3]	@ zero_extendqisi2
	cmp	r3, #0
	beq	.L200
	nop
	nop
	sub	sp, fp, #4
	@ sp needed
	pop	{fp, lr}
	bx	lr
.L205:
	.align	2
.L204:
	.word	time
	.word	stable
	.word	step
	.word	FH_STEUERUNG_DUMMY_FH_STEUERUNG_DUMMY_next_state
	.word	FH_DU__MFHZ
	.word	FH_DU__MFHZ_old
	.word	FH_DU__MFH
	.word	FH_DU__MFHA
	.word	FH_DU__MFHA_old
	.word	Bitlist
	.word	KINDERSICHERUNG_CTRL_KINDERSICHERUNG_CTRL_next_state
	.word	EINKLEMMSCHUTZ_CTRL_EINKLEMMSCHUTZ_CTRL_next_state
	.word	BLOCK_ERKENNUNG_CTRL_BLOCK_ERKENNUNG_CTRL_next_state
	.word	B_FH_TUERMODUL_CTRL_next_state
	.word	FH_TUERMODUL_CTRL__N
	.word	A_FH_TUERMODUL_CTRL_next_state
	.word	WIEDERHOLSPERRE_FH_TUERMODUL_CTRL_next_state
	.word	FH_DU__S_FH_TMBFZUCAN
	.word	FH_DU__S_FH_TMBFZUCAN_old
	.word	FH_DU__DOOR_ID
	.word	FH_DU__S_FH_FTZU
	.word	FH_DU__S_FH_TMBFZUDISC
	.word	FH_DU__S_FH_TMBFZUDISC_old
	.word	FH_DU__S_FH_TMBFAUFCAN
	.word	FH_DU__S_FH_TMBFAUFCAN_old
	.word	FH_DU__S_FH_FTAUF
	.word	FH_DU__S_FH_TMBFAUFDISC
	.word	FH_DU__S_FH_TMBFAUFDISC_old
	.word	FH_DU__S_FH_AUFDISC
	.word	FH_TUERMODUL__SFHA_MEC
	.word	FH_TUERMODUL__SFHA_ZENTRAL
	.word	FH_DU__S_FH_ZUDISC
	.word	FH_TUERMODUL__SFHZ_MEC
	.word	FH_TUERMODUL__SFHZ_ZENTRAL
	.word	FH_TUERMODUL__MFHA
	.word	FH_TUERMODUL__MFHZ
	.word	FH_TUERMODUL__I_EIN
	.word	FH_DU__I_EIN
	.word	FH_TUERMODUL__EKS_LEISTE_AKTIV
	.word	FH_DU__EKS_LEISTE_AKTIV
	.word	FH_TUERMODUL__POSITION
	.word	FH_DU__POSITION
	.word	FH_TUERMODUL__FT
	.word	FH_DU__FT
	.word	FH_TUERMODUL__KL_50
	.word	FH_DU__KL_50
	.word	FH_TUERMODUL__BLOCK
	.word	FH_DU__BLOCK
	.word	FH_TUERMODUL_CTRL__N_old
	.word	FH_TUERMODUL__I_EIN_old
	.word	FH_DU__MFH_copy
	.word	FH_DU__I_EIN_old
	.word	BLOCK_ERKENNUNG_CTRL__N
	.word	BLOCK_ERKENNUNG_CTRL__N_old
	.word	FH_TUERMODUL__SFHZ_ZENTRAL_old
	.word	FH_TUERMODUL__SFHZ_MEC_old
	.word	FH_TUERMODUL__SFHA_ZENTRAL_old
	.word	FH_TUERMODUL__SFHA_MEC_old
	.word	FH_TUERMODUL__BLOCK_copy
	.word	FH_TUERMODUL__BLOCK_old
	.word	FH_TUERMODUL__SFHZ_copy
	.word	FH_TUERMODUL__SFHZ
	.word	FH_TUERMODUL__SFHZ_old
	.word	FH_TUERMODUL__SFHA_copy
	.word	FH_TUERMODUL__SFHA
	.word	FH_TUERMODUL__SFHA_old
	.word	FH_TUERMODUL__MFHZ_copy
	.word	FH_TUERMODUL__MFHZ_old
	.word	FH_TUERMODUL__MFHA_copy
	.word	FH_TUERMODUL__MFHA_old
	.word	FH_TUERMODUL__EKS_LEISTE_AKTIV_old
	.word	FH_DU__EKS_LEISTE_AKTIV_old
	.word	FH_DU__BLOCK_copy
	.word	FH_DU__BLOCK_old
	.word	FH_DU__MFHZ_copy
	.word	FH_DU__MFHA_copy
	.size	FH_DU, .-FH_DU
	.align	2
	.global	beebs_statemate_benchmark
	.syntax unified
	.arm
	.fpu softvfp
	.type	beebs_statemate_benchmark, %function
beebs_statemate_benchmark:
	@ Function supports interworking.
	@ args = 0, pretend = 0, frame = 0
	@ frame_needed = 1, uses_anonymous_args = 0
	push	{fp, lr}
	add	fp, sp, #4
	bl	interface
	bl	FH_DU
	mov	r3, #0
	mov	r0, r3
	sub	sp, fp, #4
	@ sp needed
	pop	{fp, lr}
	bx	lr
	.size	beebs_statemate_benchmark, .-beebs_statemate_benchmark
	.align	2
	.global	beebs_statemate_initialise_benchmark
	.syntax unified
	.arm
	.fpu softvfp
	.type	beebs_statemate_initialise_benchmark, %function
beebs_statemate_initialise_benchmark:
	@ Function supports interworking.
	@ args = 0, pretend = 0, frame = 8
	@ frame_needed = 1, uses_anonymous_args = 0
	push	{fp, lr}
	add	fp, sp, #4
	sub	sp, sp, #8
	mov	r3, #0
	str	r3, [fp, #-8]
	b	.L209
.L210:
	ldr	r2, .L211
	ldr	r3, [fp, #-8]
	add	r3, r2, r3
	mov	r2, #0
	strb	r2, [r3]
	ldr	r3, [fp, #-8]
	add	r3, r3, #1
	str	r3, [fp, #-8]
.L209:
	ldr	r3, [fp, #-8]
	cmp	r3, #63
	ble	.L210
	bl	init
	nop
	sub	sp, fp, #4
	@ sp needed
	pop	{fp, lr}
	bx	lr
.L212:
	.align	2
.L211:
	.word	Bitlist
	.size	beebs_statemate_initialise_benchmark, .-beebs_statemate_initialise_benchmark
	.section	.rodata
	.align	2
.LC0:
	.ascii	"\000\000\000\000\000\001\000\000\000\000\000\000\000"
	.ascii	"\000\000\000\000\000\000\000\000\000\000\000\000\000"
	.ascii	"\000\000\000\000\000\000\000\000\000\000\000\000\000"
	.ascii	"\000\000\000\000\000\000\000\000\000\000\000\000\000"
	.ascii	"\000\000\000\000\000\000\000\000\000\000\000\000"
	.text
	.align	2
	.global	beebs_statemate_verify_benchmark
	.syntax unified
	.arm
	.fpu softvfp
	.type	beebs_statemate_verify_benchmark, %function
beebs_statemate_verify_benchmark:
	@ Function supports interworking.
	@ args = 0, pretend = 0, frame = 80
	@ frame_needed = 1, uses_anonymous_args = 0
	push	{fp, lr}
	add	fp, sp, #4
	sub	sp, sp, #80
	str	r0, [fp, #-80]
	ldr	r3, .L221
	sub	ip, fp, #72
	mov	lr, r3
	ldmia	lr!, {r0, r1, r2, r3}
	stmia	ip!, {r0, r1, r2, r3}
	ldmia	lr!, {r0, r1, r2, r3}
	stmia	ip!, {r0, r1, r2, r3}
	ldmia	lr!, {r0, r1, r2, r3}
	stmia	ip!, {r0, r1, r2, r3}
	ldm	lr, {r0, r1, r2, r3}
	stm	ip, {r0, r1, r2, r3}
	mov	r3, #0
	str	r3, [fp, #-8]
	b	.L214
.L217:
	ldr	r2, .L221+4
	ldr	r3, [fp, #-8]
	add	r3, r2, r3
	ldrb	r2, [r3]	@ zero_extendqisi2
	sub	r1, fp, #72
	ldr	r3, [fp, #-8]
	add	r3, r1, r3
	ldrb	r3, [r3]	@ zero_extendqisi2
	cmp	r2, r3
	beq	.L215
	mov	r3, #0
	b	.L220
.L215:
	ldr	r3, [fp, #-8]
	add	r3, r3, #1
	str	r3, [fp, #-8]
.L214:
	ldr	r3, [fp, #-8]
	cmp	r3, #63
	ble	.L217
	ldr	r3, .L221+8
	ldr	r3, [r3]
	cmp	r3, #0
	bne	.L218
	ldr	r3, .L221+12
	ldr	r3, [r3]
	cmp	r3, #0
	bne	.L218
	ldr	r3, .L221+16
	ldr	r3, [r3]
	cmp	r3, #0
	bne	.L218
	ldr	r3, .L221+20
	ldrb	r3, [r3]	@ zero_extendqisi2
	cmp	r3, #0
	bne	.L218
	ldr	r3, .L221+24
	ldrb	r3, [r3]	@ zero_extendqisi2
	cmp	r3, #0
	bne	.L218
	ldr	r3, .L221+28
	ldrb	r3, [r3]	@ zero_extendqisi2
	cmp	r3, #0
	bne	.L218
	ldr	r3, .L221+32
	ldrb	r3, [r3]	@ zero_extendqisi2
	cmp	r3, #3
	bne	.L218
	ldr	r3, .L221+36
	ldrb	r3, [r3]	@ zero_extendqisi2
	cmp	r3, #2
	bne	.L218
	ldr	r3, .L221+40
	ldrb	r3, [r3]	@ zero_extendqisi2
	cmp	r3, #1
	bne	.L218
	ldr	r3, .L221+44
	ldrb	r3, [r3]	@ zero_extendqisi2
	cmp	r3, #1
	bne	.L218
	ldr	r3, .L221+48
	ldrb	r3, [r3]	@ zero_extendqisi2
	cmp	r3, #0
	bne	.L218
	ldr	r3, .L221+52
	ldrb	r3, [r3]	@ zero_extendqisi2
	cmp	r3, #0
	bne	.L218
	ldr	r3, .L221+56
	ldrb	r3, [r3]	@ zero_extendqisi2
	cmp	r3, #0
	bne	.L218
	ldr	r3, .L221+60
	ldrb	r3, [r3]	@ zero_extendqisi2
	cmp	r3, #0
	bne	.L218
	ldr	r3, .L221+64
	ldrb	r3, [r3]	@ zero_extendqisi2
	cmp	r3, #0
	bne	.L218
	ldr	r3, .L221+68
	ldrb	r3, [r3]	@ zero_extendqisi2
	cmp	r3, #2
	bne	.L218
	ldr	r3, .L221+72
	ldrb	r3, [r3]	@ zero_extendqisi2
	cmp	r3, #1
	bne	.L218
	ldr	r3, .L221+76
	ldrb	r3, [r3]	@ zero_extendqisi2
	cmp	r3, #0
	bne	.L218
	ldr	r3, .L221+80
	ldrb	r3, [r3]	@ zero_extendqisi2
	cmp	r3, #1
	beq	.L219
.L218:
	mov	r3, #0
	b	.L220
.L219:
	mov	r3, #1
.L220:
	mov	r0, r3
	sub	sp, fp, #4
	@ sp needed
	pop	{fp, lr}
	bx	lr
.L222:
	.align	2
.L221:
	.word	.LC0
	.word	Bitlist
	.word	tm_entered_EINSCHALTSTROM_MESSEN_BLOCK_ERKENNUNG_CTRLch_BLOCK_ERKENNUNG_CTRL__N_copy
	.word	tm_entered_WIEDERHOLSPERRE_FH_TUERMODUL_CTRLexited_BEREIT_FH_TUERMODUL_CTRL
	.word	tm_entered_WIEDERHOLSPERRE_FH_TUERMODUL_CTRL
	.word	NICHT_INITIALISIERT_NICHT_INITIALISIERT_next_state
	.word	ZENTRAL_KINDERSICHERUNG_CTRL_next_state
	.word	MEC_KINDERSICHERUNG_CTRL_next_state
	.word	KINDERSICHERUNG_CTRL_KINDERSICHERUNG_CTRL_next_state
	.word	B_FH_TUERMODUL_CTRL_next_state
	.word	A_FH_TUERMODUL_CTRL_next_state
	.word	WIEDERHOLSPERRE_FH_TUERMODUL_CTRL_next_state
	.word	INITIALISIERT_FH_TUERMODUL_CTRL_next_state
	.word	TIPP_SCHLIESSEN_FH_TUERMODUL_CTRL_next_state
	.word	MANUELL_SCHLIESSEN_FH_TUERMODUL_CTRL_next_state
	.word	OEFFNEN_FH_TUERMODUL_CTRL_next_state
	.word	SCHLIESSEN_FH_TUERMODUL_CTRL_next_state
	.word	FH_STEUERUNG_DUMMY_FH_STEUERUNG_DUMMY_next_state
	.word	EINKLEMMSCHUTZ_CTRL_EINKLEMMSCHUTZ_CTRL_next_state
	.word	BEWEGUNG_BLOCK_ERKENNUNG_CTRL_next_state
	.word	BLOCK_ERKENNUNG_CTRL_BLOCK_ERKENNUNG_CTRL_next_state
	.size	beebs_statemate_verify_benchmark, .-beebs_statemate_verify_benchmark
	.ident	"GCC: (15:10.3-2021.07-4) 10.3.1 20210621 (release)"
